
W25Q128_STM32F412ZG.elf:     file format elf32-littlearm

Sections:
Idx Name          Size      VMA       LMA       File off  Algn
  0 .text         00003094  20000004  20000004  00010004  2**2
                  CONTENTS, ALLOC, LOAD, READONLY, CODE
  1 .rodata       00000898  20003098  20003098  00013098  2**2
                  CONTENTS, ALLOC, LOAD, READONLY, DATA
  2 .ARM          00000008  20003930  20003930  00013930  2**2
                  CONTENTS, ALLOC, LOAD, READONLY, DATA
  3 .data         0000000c  20003938  20003938  00013938  2**2
                  CONTENTS, ALLOC, LOAD, DATA
  4 .bss          00000054  20003944  20003944  00013944  2**2
                  ALLOC
  5 .ARM.attributes 00000039  00000000  00000000  00013944  2**0
                  CONTENTS, READONLY
  6 .comment      0000007b  00000000  00000000  0001397d  2**0
                  CONTENTS, READONLY
  7 .debug_frame  00000020  00000000  00000000  000139f8  2**2
                  CONTENTS, READONLY, DEBUGGING

Disassembly of section .text:

20000004 <__aeabi_ldivmod>:
20000004:	b97b      	cbnz	r3, 20000026 <__aeabi_ldivmod+0x22>
20000006:	b972      	cbnz	r2, 20000026 <__aeabi_ldivmod+0x22>
20000008:	2900      	cmp	r1, #0
2000000a:	bfbe      	ittt	lt
2000000c:	2000      	movlt	r0, #0
2000000e:	f04f 4100 	movlt.w	r1, #2147483648	; 0x80000000
20000012:	e006      	blt.n	20000022 <__aeabi_ldivmod+0x1e>
20000014:	bf08      	it	eq
20000016:	2800      	cmpeq	r0, #0
20000018:	bf1c      	itt	ne
2000001a:	f06f 4100 	mvnne.w	r1, #2147483648	; 0x80000000
2000001e:	f04f 30ff 	movne.w	r0, #4294967295
20000022:	f000 b9bd 	b.w	200003a0 <__aeabi_idiv0>
20000026:	f1ad 0c08 	sub.w	ip, sp, #8
2000002a:	e96d ce04 	strd	ip, lr, [sp, #-16]!
2000002e:	2900      	cmp	r1, #0
20000030:	db09      	blt.n	20000046 <__aeabi_ldivmod+0x42>
20000032:	2b00      	cmp	r3, #0
20000034:	db1a      	blt.n	2000006c <__aeabi_ldivmod+0x68>
20000036:	f000 f84d 	bl	200000d4 <__udivmoddi4>
2000003a:	f8dd e004 	ldr.w	lr, [sp, #4]
2000003e:	e9dd 2302 	ldrd	r2, r3, [sp, #8]
20000042:	b004      	add	sp, #16
20000044:	4770      	bx	lr
20000046:	4240      	negs	r0, r0
20000048:	eb61 0141 	sbc.w	r1, r1, r1, lsl #1
2000004c:	2b00      	cmp	r3, #0
2000004e:	db1b      	blt.n	20000088 <__aeabi_ldivmod+0x84>
20000050:	f000 f840 	bl	200000d4 <__udivmoddi4>
20000054:	f8dd e004 	ldr.w	lr, [sp, #4]
20000058:	e9dd 2302 	ldrd	r2, r3, [sp, #8]
2000005c:	b004      	add	sp, #16
2000005e:	4240      	negs	r0, r0
20000060:	eb61 0141 	sbc.w	r1, r1, r1, lsl #1
20000064:	4252      	negs	r2, r2
20000066:	eb63 0343 	sbc.w	r3, r3, r3, lsl #1
2000006a:	4770      	bx	lr
2000006c:	4252      	negs	r2, r2
2000006e:	eb63 0343 	sbc.w	r3, r3, r3, lsl #1
20000072:	f000 f82f 	bl	200000d4 <__udivmoddi4>
20000076:	f8dd e004 	ldr.w	lr, [sp, #4]
2000007a:	e9dd 2302 	ldrd	r2, r3, [sp, #8]
2000007e:	b004      	add	sp, #16
20000080:	4240      	negs	r0, r0
20000082:	eb61 0141 	sbc.w	r1, r1, r1, lsl #1
20000086:	4770      	bx	lr
20000088:	4252      	negs	r2, r2
2000008a:	eb63 0343 	sbc.w	r3, r3, r3, lsl #1
2000008e:	f000 f821 	bl	200000d4 <__udivmoddi4>
20000092:	f8dd e004 	ldr.w	lr, [sp, #4]
20000096:	e9dd 2302 	ldrd	r2, r3, [sp, #8]
2000009a:	b004      	add	sp, #16
2000009c:	4252      	negs	r2, r2
2000009e:	eb63 0343 	sbc.w	r3, r3, r3, lsl #1
200000a2:	4770      	bx	lr

200000a4 <__aeabi_uldivmod>:
200000a4:	b953      	cbnz	r3, 200000bc <__aeabi_uldivmod+0x18>
200000a6:	b94a      	cbnz	r2, 200000bc <__aeabi_uldivmod+0x18>
200000a8:	2900      	cmp	r1, #0
200000aa:	bf08      	it	eq
200000ac:	2800      	cmpeq	r0, #0
200000ae:	bf1c      	itt	ne
200000b0:	f04f 31ff 	movne.w	r1, #4294967295
200000b4:	f04f 30ff 	movne.w	r0, #4294967295
200000b8:	f000 b972 	b.w	200003a0 <__aeabi_idiv0>
200000bc:	f1ad 0c08 	sub.w	ip, sp, #8
200000c0:	e96d ce04 	strd	ip, lr, [sp, #-16]!
200000c4:	f000 f806 	bl	200000d4 <__udivmoddi4>
200000c8:	f8dd e004 	ldr.w	lr, [sp, #4]
200000cc:	e9dd 2302 	ldrd	r2, r3, [sp, #8]
200000d0:	b004      	add	sp, #16
200000d2:	4770      	bx	lr

200000d4 <__udivmoddi4>:
200000d4:	e92d 47f0 	stmdb	sp!, {r4, r5, r6, r7, r8, r9, sl, lr}
200000d8:	9e08      	ldr	r6, [sp, #32]
200000da:	4604      	mov	r4, r0
200000dc:	4688      	mov	r8, r1
200000de:	2b00      	cmp	r3, #0
200000e0:	d14b      	bne.n	2000017a <__udivmoddi4+0xa6>
200000e2:	428a      	cmp	r2, r1
200000e4:	4615      	mov	r5, r2
200000e6:	d967      	bls.n	200001b8 <__udivmoddi4+0xe4>
200000e8:	fab2 f282 	clz	r2, r2
200000ec:	b14a      	cbz	r2, 20000102 <__udivmoddi4+0x2e>
200000ee:	f1c2 0720 	rsb	r7, r2, #32
200000f2:	fa01 f302 	lsl.w	r3, r1, r2
200000f6:	fa20 f707 	lsr.w	r7, r0, r7
200000fa:	4095      	lsls	r5, r2
200000fc:	ea47 0803 	orr.w	r8, r7, r3
20000100:	4094      	lsls	r4, r2
20000102:	ea4f 4e15 	mov.w	lr, r5, lsr #16
20000106:	0c23      	lsrs	r3, r4, #16
20000108:	fbb8 f7fe 	udiv	r7, r8, lr
2000010c:	fa1f fc85 	uxth.w	ip, r5
20000110:	fb0e 8817 	mls	r8, lr, r7, r8
20000114:	ea43 4308 	orr.w	r3, r3, r8, lsl #16
20000118:	fb07 f10c 	mul.w	r1, r7, ip
2000011c:	4299      	cmp	r1, r3
2000011e:	d909      	bls.n	20000134 <__udivmoddi4+0x60>
20000120:	18eb      	adds	r3, r5, r3
20000122:	f107 30ff 	add.w	r0, r7, #4294967295
20000126:	f080 811b 	bcs.w	20000360 <__udivmoddi4+0x28c>
2000012a:	4299      	cmp	r1, r3
2000012c:	f240 8118 	bls.w	20000360 <__udivmoddi4+0x28c>
20000130:	3f02      	subs	r7, #2
20000132:	442b      	add	r3, r5
20000134:	1a5b      	subs	r3, r3, r1
20000136:	b2a4      	uxth	r4, r4
20000138:	fbb3 f0fe 	udiv	r0, r3, lr
2000013c:	fb0e 3310 	mls	r3, lr, r0, r3
20000140:	ea44 4403 	orr.w	r4, r4, r3, lsl #16
20000144:	fb00 fc0c 	mul.w	ip, r0, ip
20000148:	45a4      	cmp	ip, r4
2000014a:	d909      	bls.n	20000160 <__udivmoddi4+0x8c>
2000014c:	192c      	adds	r4, r5, r4
2000014e:	f100 33ff 	add.w	r3, r0, #4294967295
20000152:	f080 8107 	bcs.w	20000364 <__udivmoddi4+0x290>
20000156:	45a4      	cmp	ip, r4
20000158:	f240 8104 	bls.w	20000364 <__udivmoddi4+0x290>
2000015c:	3802      	subs	r0, #2
2000015e:	442c      	add	r4, r5
20000160:	ea40 4007 	orr.w	r0, r0, r7, lsl #16
20000164:	eba4 040c 	sub.w	r4, r4, ip
20000168:	2700      	movs	r7, #0
2000016a:	b11e      	cbz	r6, 20000174 <__udivmoddi4+0xa0>
2000016c:	40d4      	lsrs	r4, r2
2000016e:	2300      	movs	r3, #0
20000170:	e9c6 4300 	strd	r4, r3, [r6]
20000174:	4639      	mov	r1, r7
20000176:	e8bd 87f0 	ldmia.w	sp!, {r4, r5, r6, r7, r8, r9, sl, pc}
2000017a:	428b      	cmp	r3, r1
2000017c:	d909      	bls.n	20000192 <__udivmoddi4+0xbe>
2000017e:	2e00      	cmp	r6, #0
20000180:	f000 80eb 	beq.w	2000035a <__udivmoddi4+0x286>
20000184:	2700      	movs	r7, #0
20000186:	e9c6 0100 	strd	r0, r1, [r6]
2000018a:	4638      	mov	r0, r7
2000018c:	4639      	mov	r1, r7
2000018e:	e8bd 87f0 	ldmia.w	sp!, {r4, r5, r6, r7, r8, r9, sl, pc}
20000192:	fab3 f783 	clz	r7, r3
20000196:	2f00      	cmp	r7, #0
20000198:	d147      	bne.n	2000022a <__udivmoddi4+0x156>
2000019a:	428b      	cmp	r3, r1
2000019c:	d302      	bcc.n	200001a4 <__udivmoddi4+0xd0>
2000019e:	4282      	cmp	r2, r0
200001a0:	f200 80fa 	bhi.w	20000398 <__udivmoddi4+0x2c4>
200001a4:	1a84      	subs	r4, r0, r2
200001a6:	eb61 0303 	sbc.w	r3, r1, r3
200001aa:	2001      	movs	r0, #1
200001ac:	4698      	mov	r8, r3
200001ae:	2e00      	cmp	r6, #0
200001b0:	d0e0      	beq.n	20000174 <__udivmoddi4+0xa0>
200001b2:	e9c6 4800 	strd	r4, r8, [r6]
200001b6:	e7dd      	b.n	20000174 <__udivmoddi4+0xa0>
200001b8:	b902      	cbnz	r2, 200001bc <__udivmoddi4+0xe8>
200001ba:	deff      	udf	#255	; 0xff
200001bc:	fab2 f282 	clz	r2, r2
200001c0:	2a00      	cmp	r2, #0
200001c2:	f040 808f 	bne.w	200002e4 <__udivmoddi4+0x210>
200001c6:	1b49      	subs	r1, r1, r5
200001c8:	ea4f 4e15 	mov.w	lr, r5, lsr #16
200001cc:	fa1f f885 	uxth.w	r8, r5
200001d0:	2701      	movs	r7, #1
200001d2:	fbb1 fcfe 	udiv	ip, r1, lr
200001d6:	0c23      	lsrs	r3, r4, #16
200001d8:	fb0e 111c 	mls	r1, lr, ip, r1
200001dc:	ea43 4301 	orr.w	r3, r3, r1, lsl #16
200001e0:	fb08 f10c 	mul.w	r1, r8, ip
200001e4:	4299      	cmp	r1, r3
200001e6:	d907      	bls.n	200001f8 <__udivmoddi4+0x124>
200001e8:	18eb      	adds	r3, r5, r3
200001ea:	f10c 30ff 	add.w	r0, ip, #4294967295
200001ee:	d202      	bcs.n	200001f6 <__udivmoddi4+0x122>
200001f0:	4299      	cmp	r1, r3
200001f2:	f200 80cd 	bhi.w	20000390 <__udivmoddi4+0x2bc>
200001f6:	4684      	mov	ip, r0
200001f8:	1a59      	subs	r1, r3, r1
200001fa:	b2a3      	uxth	r3, r4
200001fc:	fbb1 f0fe 	udiv	r0, r1, lr
20000200:	fb0e 1410 	mls	r4, lr, r0, r1
20000204:	ea43 4404 	orr.w	r4, r3, r4, lsl #16
20000208:	fb08 f800 	mul.w	r8, r8, r0
2000020c:	45a0      	cmp	r8, r4
2000020e:	d907      	bls.n	20000220 <__udivmoddi4+0x14c>
20000210:	192c      	adds	r4, r5, r4
20000212:	f100 33ff 	add.w	r3, r0, #4294967295
20000216:	d202      	bcs.n	2000021e <__udivmoddi4+0x14a>
20000218:	45a0      	cmp	r8, r4
2000021a:	f200 80b6 	bhi.w	2000038a <__udivmoddi4+0x2b6>
2000021e:	4618      	mov	r0, r3
20000220:	eba4 0408 	sub.w	r4, r4, r8
20000224:	ea40 400c 	orr.w	r0, r0, ip, lsl #16
20000228:	e79f      	b.n	2000016a <__udivmoddi4+0x96>
2000022a:	f1c7 0c20 	rsb	ip, r7, #32
2000022e:	40bb      	lsls	r3, r7
20000230:	fa22 fe0c 	lsr.w	lr, r2, ip
20000234:	ea4e 0e03 	orr.w	lr, lr, r3
20000238:	fa01 f407 	lsl.w	r4, r1, r7
2000023c:	fa20 f50c 	lsr.w	r5, r0, ip
20000240:	fa21 f30c 	lsr.w	r3, r1, ip
20000244:	ea4f 481e 	mov.w	r8, lr, lsr #16
20000248:	4325      	orrs	r5, r4
2000024a:	fbb3 f9f8 	udiv	r9, r3, r8
2000024e:	0c2c      	lsrs	r4, r5, #16
20000250:	fb08 3319 	mls	r3, r8, r9, r3
20000254:	fa1f fa8e 	uxth.w	sl, lr
20000258:	ea44 4303 	orr.w	r3, r4, r3, lsl #16
2000025c:	fb09 f40a 	mul.w	r4, r9, sl
20000260:	429c      	cmp	r4, r3
20000262:	fa02 f207 	lsl.w	r2, r2, r7
20000266:	fa00 f107 	lsl.w	r1, r0, r7
2000026a:	d90b      	bls.n	20000284 <__udivmoddi4+0x1b0>
2000026c:	eb1e 0303 	adds.w	r3, lr, r3
20000270:	f109 30ff 	add.w	r0, r9, #4294967295
20000274:	f080 8087 	bcs.w	20000386 <__udivmoddi4+0x2b2>
20000278:	429c      	cmp	r4, r3
2000027a:	f240 8084 	bls.w	20000386 <__udivmoddi4+0x2b2>
2000027e:	f1a9 0902 	sub.w	r9, r9, #2
20000282:	4473      	add	r3, lr
20000284:	1b1b      	subs	r3, r3, r4
20000286:	b2ad      	uxth	r5, r5
20000288:	fbb3 f0f8 	udiv	r0, r3, r8
2000028c:	fb08 3310 	mls	r3, r8, r0, r3
20000290:	ea45 4403 	orr.w	r4, r5, r3, lsl #16
20000294:	fb00 fa0a 	mul.w	sl, r0, sl
20000298:	45a2      	cmp	sl, r4
2000029a:	d908      	bls.n	200002ae <__udivmoddi4+0x1da>
2000029c:	eb1e 0404 	adds.w	r4, lr, r4
200002a0:	f100 33ff 	add.w	r3, r0, #4294967295
200002a4:	d26b      	bcs.n	2000037e <__udivmoddi4+0x2aa>
200002a6:	45a2      	cmp	sl, r4
200002a8:	d969      	bls.n	2000037e <__udivmoddi4+0x2aa>
200002aa:	3802      	subs	r0, #2
200002ac:	4474      	add	r4, lr
200002ae:	ea40 4009 	orr.w	r0, r0, r9, lsl #16
200002b2:	fba0 8902 	umull	r8, r9, r0, r2
200002b6:	eba4 040a 	sub.w	r4, r4, sl
200002ba:	454c      	cmp	r4, r9
200002bc:	46c2      	mov	sl, r8
200002be:	464b      	mov	r3, r9
200002c0:	d354      	bcc.n	2000036c <__udivmoddi4+0x298>
200002c2:	d051      	beq.n	20000368 <__udivmoddi4+0x294>
200002c4:	2e00      	cmp	r6, #0
200002c6:	d069      	beq.n	2000039c <__udivmoddi4+0x2c8>
200002c8:	ebb1 050a 	subs.w	r5, r1, sl
200002cc:	eb64 0403 	sbc.w	r4, r4, r3
200002d0:	fa04 fc0c 	lsl.w	ip, r4, ip
200002d4:	40fd      	lsrs	r5, r7
200002d6:	40fc      	lsrs	r4, r7
200002d8:	ea4c 0505 	orr.w	r5, ip, r5
200002dc:	e9c6 5400 	strd	r5, r4, [r6]
200002e0:	2700      	movs	r7, #0
200002e2:	e747      	b.n	20000174 <__udivmoddi4+0xa0>
200002e4:	f1c2 0320 	rsb	r3, r2, #32
200002e8:	fa20 f703 	lsr.w	r7, r0, r3
200002ec:	4095      	lsls	r5, r2
200002ee:	fa01 f002 	lsl.w	r0, r1, r2
200002f2:	fa21 f303 	lsr.w	r3, r1, r3
200002f6:	ea4f 4e15 	mov.w	lr, r5, lsr #16
200002fa:	4338      	orrs	r0, r7
200002fc:	0c01      	lsrs	r1, r0, #16
200002fe:	fbb3 f7fe 	udiv	r7, r3, lr
20000302:	fa1f f885 	uxth.w	r8, r5
20000306:	fb0e 3317 	mls	r3, lr, r7, r3
2000030a:	ea41 4103 	orr.w	r1, r1, r3, lsl #16
2000030e:	fb07 f308 	mul.w	r3, r7, r8
20000312:	428b      	cmp	r3, r1
20000314:	fa04 f402 	lsl.w	r4, r4, r2
20000318:	d907      	bls.n	2000032a <__udivmoddi4+0x256>
2000031a:	1869      	adds	r1, r5, r1
2000031c:	f107 3cff 	add.w	ip, r7, #4294967295
20000320:	d22f      	bcs.n	20000382 <__udivmoddi4+0x2ae>
20000322:	428b      	cmp	r3, r1
20000324:	d92d      	bls.n	20000382 <__udivmoddi4+0x2ae>
20000326:	3f02      	subs	r7, #2
20000328:	4429      	add	r1, r5
2000032a:	1acb      	subs	r3, r1, r3
2000032c:	b281      	uxth	r1, r0
2000032e:	fbb3 f0fe 	udiv	r0, r3, lr
20000332:	fb0e 3310 	mls	r3, lr, r0, r3
20000336:	ea41 4103 	orr.w	r1, r1, r3, lsl #16
2000033a:	fb00 f308 	mul.w	r3, r0, r8
2000033e:	428b      	cmp	r3, r1
20000340:	d907      	bls.n	20000352 <__udivmoddi4+0x27e>
20000342:	1869      	adds	r1, r5, r1
20000344:	f100 3cff 	add.w	ip, r0, #4294967295
20000348:	d217      	bcs.n	2000037a <__udivmoddi4+0x2a6>
2000034a:	428b      	cmp	r3, r1
2000034c:	d915      	bls.n	2000037a <__udivmoddi4+0x2a6>
2000034e:	3802      	subs	r0, #2
20000350:	4429      	add	r1, r5
20000352:	1ac9      	subs	r1, r1, r3
20000354:	ea40 4707 	orr.w	r7, r0, r7, lsl #16
20000358:	e73b      	b.n	200001d2 <__udivmoddi4+0xfe>
2000035a:	4637      	mov	r7, r6
2000035c:	4630      	mov	r0, r6
2000035e:	e709      	b.n	20000174 <__udivmoddi4+0xa0>
20000360:	4607      	mov	r7, r0
20000362:	e6e7      	b.n	20000134 <__udivmoddi4+0x60>
20000364:	4618      	mov	r0, r3
20000366:	e6fb      	b.n	20000160 <__udivmoddi4+0x8c>
20000368:	4541      	cmp	r1, r8
2000036a:	d2ab      	bcs.n	200002c4 <__udivmoddi4+0x1f0>
2000036c:	ebb8 0a02 	subs.w	sl, r8, r2
20000370:	eb69 020e 	sbc.w	r2, r9, lr
20000374:	3801      	subs	r0, #1
20000376:	4613      	mov	r3, r2
20000378:	e7a4      	b.n	200002c4 <__udivmoddi4+0x1f0>
2000037a:	4660      	mov	r0, ip
2000037c:	e7e9      	b.n	20000352 <__udivmoddi4+0x27e>
2000037e:	4618      	mov	r0, r3
20000380:	e795      	b.n	200002ae <__udivmoddi4+0x1da>
20000382:	4667      	mov	r7, ip
20000384:	e7d1      	b.n	2000032a <__udivmoddi4+0x256>
20000386:	4681      	mov	r9, r0
20000388:	e77c      	b.n	20000284 <__udivmoddi4+0x1b0>
2000038a:	3802      	subs	r0, #2
2000038c:	442c      	add	r4, r5
2000038e:	e747      	b.n	20000220 <__udivmoddi4+0x14c>
20000390:	f1ac 0c02 	sub.w	ip, ip, #2
20000394:	442b      	add	r3, r5
20000396:	e72f      	b.n	200001f8 <__udivmoddi4+0x124>
20000398:	4638      	mov	r0, r7
2000039a:	e708      	b.n	200001ae <__udivmoddi4+0xda>
2000039c:	4637      	mov	r7, r6
2000039e:	e6e9      	b.n	20000174 <__udivmoddi4+0xa0>

200003a0 <__aeabi_idiv0>:
200003a0:	4770      	bx	lr
200003a2:	bf00      	nop

200003a4 <SystemClock_Config>:
200003a4:	b530      	push	{r4, r5, lr}
200003a6:	2414      	movs	r4, #20
200003a8:	b095      	sub	sp, #84	; 0x54
200003aa:	4622      	mov	r2, r4
200003ac:	2100      	movs	r1, #0
200003ae:	a808      	add	r0, sp, #32
200003b0:	f002 fe6a 	bl	20003088 <memset>
200003b4:	4622      	mov	r2, r4
200003b6:	2100      	movs	r1, #0
200003b8:	a802      	add	r0, sp, #8
200003ba:	f002 fe65 	bl	20003088 <memset>
200003be:	2500      	movs	r5, #0
200003c0:	4b1a      	ldr	r3, [pc, #104]	; (2000042c <SystemClock_Config+0x88>)
200003c2:	9500      	str	r5, [sp, #0]
200003c4:	6c1a      	ldr	r2, [r3, #64]	; 0x40
200003c6:	f042 5280 	orr.w	r2, r2, #268435456	; 0x10000000
200003ca:	641a      	str	r2, [r3, #64]	; 0x40
200003cc:	6c1b      	ldr	r3, [r3, #64]	; 0x40
200003ce:	f003 5380 	and.w	r3, r3, #268435456	; 0x10000000
200003d2:	9300      	str	r3, [sp, #0]
200003d4:	9b00      	ldr	r3, [sp, #0]
200003d6:	4b16      	ldr	r3, [pc, #88]	; (20000430 <SystemClock_Config+0x8c>)
200003d8:	9501      	str	r5, [sp, #4]
200003da:	681a      	ldr	r2, [r3, #0]
200003dc:	f442 4240 	orr.w	r2, r2, #49152	; 0xc000
200003e0:	601a      	str	r2, [r3, #0]
200003e2:	681b      	ldr	r3, [r3, #0]
200003e4:	f403 4340 	and.w	r3, r3, #49152	; 0xc000
200003e8:	9301      	str	r3, [sp, #4]
200003ea:	2201      	movs	r2, #1
200003ec:	9b01      	ldr	r3, [sp, #4]
200003ee:	2310      	movs	r3, #16
200003f0:	2402      	movs	r4, #2
200003f2:	e9cd 230a 	strd	r2, r3, [sp, #40]	; 0x28
200003f6:	2108      	movs	r1, #8
200003f8:	2364      	movs	r3, #100	; 0x64
200003fa:	a807      	add	r0, sp, #28
200003fc:	e9cd 130f 	strd	r1, r3, [sp, #60]	; 0x3c
20000400:	9407      	str	r4, [sp, #28]
20000402:	e9cd 450d 	strd	r4, r5, [sp, #52]	; 0x34
20000406:	e9cd 4411 	strd	r4, r4, [sp, #68]	; 0x44
2000040a:	9413      	str	r4, [sp, #76]	; 0x4c
2000040c:	f002 fb68 	bl	20002ae0 <HAL_RCC_OscConfig>
20000410:	230f      	movs	r3, #15
20000412:	e9cd 3402 	strd	r3, r4, [sp, #8]
20000416:	2103      	movs	r1, #3
20000418:	f44f 5380 	mov.w	r3, #4096	; 0x1000
2000041c:	a802      	add	r0, sp, #8
2000041e:	9504      	str	r5, [sp, #16]
20000420:	e9cd 3505 	strd	r3, r5, [sp, #20]
20000424:	f002 fd0a 	bl	20002e3c <HAL_RCC_ClockConfig>
20000428:	b015      	add	sp, #84	; 0x54
2000042a:	bd30      	pop	{r4, r5, pc}
2000042c:	40023800 	.word	0x40023800
20000430:	40007000 	.word	0x40007000

20000434 <Init>:
20000434:	b51f      	push	{r0, r1, r2, r3, r4, lr}
20000436:	f000 fca7 	bl	20000d88 <HAL_Init>
2000043a:	2400      	movs	r4, #0
2000043c:	f7ff ffb2 	bl	200003a4 <SystemClock_Config>
20000440:	4b1f      	ldr	r3, [pc, #124]	; (200004c0 <Init+0x8c>)
20000442:	9400      	str	r4, [sp, #0]
20000444:	6b1a      	ldr	r2, [r3, #48]	; 0x30
20000446:	481f      	ldr	r0, [pc, #124]	; (200004c4 <Init+0x90>)
20000448:	f042 0210 	orr.w	r2, r2, #16
2000044c:	631a      	str	r2, [r3, #48]	; 0x30
2000044e:	6b1a      	ldr	r2, [r3, #48]	; 0x30
20000450:	f002 0210 	and.w	r2, r2, #16
20000454:	9200      	str	r2, [sp, #0]
20000456:	9a00      	ldr	r2, [sp, #0]
20000458:	9401      	str	r4, [sp, #4]
2000045a:	6b1a      	ldr	r2, [r3, #48]	; 0x30
2000045c:	f042 0202 	orr.w	r2, r2, #2
20000460:	631a      	str	r2, [r3, #48]	; 0x30
20000462:	6b1a      	ldr	r2, [r3, #48]	; 0x30
20000464:	f002 0202 	and.w	r2, r2, #2
20000468:	9201      	str	r2, [sp, #4]
2000046a:	9a01      	ldr	r2, [sp, #4]
2000046c:	9402      	str	r4, [sp, #8]
2000046e:	6b1a      	ldr	r2, [r3, #48]	; 0x30
20000470:	f042 0208 	orr.w	r2, r2, #8
20000474:	631a      	str	r2, [r3, #48]	; 0x30
20000476:	6b1a      	ldr	r2, [r3, #48]	; 0x30
20000478:	f002 0208 	and.w	r2, r2, #8
2000047c:	9202      	str	r2, [sp, #8]
2000047e:	9a02      	ldr	r2, [sp, #8]
20000480:	9403      	str	r4, [sp, #12]
20000482:	6b1a      	ldr	r2, [r3, #48]	; 0x30
20000484:	f042 0201 	orr.w	r2, r2, #1
20000488:	631a      	str	r2, [r3, #48]	; 0x30
2000048a:	6b1b      	ldr	r3, [r3, #48]	; 0x30
2000048c:	f003 0301 	and.w	r3, r3, #1
20000490:	9303      	str	r3, [sp, #12]
20000492:	9b03      	ldr	r3, [sp, #12]
20000494:	4b0c      	ldr	r3, [pc, #48]	; (200004c8 <Init+0x94>)
20000496:	2204      	movs	r2, #4
20000498:	e9c0 3400 	strd	r3, r4, [r0]
2000049c:	2310      	movs	r3, #16
2000049e:	e9c0 2302 	strd	r2, r3, [r0, #8]
200004a2:	2117      	movs	r1, #23
200004a4:	f44f 63a0 	mov.w	r3, #1280	; 0x500
200004a8:	e9c0 1304 	strd	r1, r3, [r0, #16]
200004ac:	e9c0 4406 	strd	r4, r4, [r0, #24]
200004b0:	6204      	str	r4, [r0, #32]
200004b2:	f001 fd1d 	bl	20001ef0 <HAL_QSPI_Init>
200004b6:	f000 fa09 	bl	200008cc <W25Q128JV_Init>
200004ba:	4620      	mov	r0, r4
200004bc:	b004      	add	sp, #16
200004be:	bd10      	pop	{r4, pc}
200004c0:	40023800 	.word	0x40023800
200004c4:	20003948 	.word	0x20003948
200004c8:	a0001000 	.word	0xa0001000

200004cc <Write>:
200004cc:	e92d 43f8 	stmdb	sp!, {r3, r4, r5, r6, r7, r8, r9, lr}
200004d0:	f010 05ff 	ands.w	r5, r0, #255	; 0xff
200004d4:	4604      	mov	r4, r0
200004d6:	4691      	mov	r9, r2
200004d8:	ea4f 2311 	mov.w	r3, r1, lsr #8
200004dc:	b2cf      	uxtb	r7, r1
200004de:	d11a      	bne.n	20000516 <Write+0x4a>
200004e0:	b15b      	cbz	r3, 200004fa <Write+0x2e>
200004e2:	021d      	lsls	r5, r3, #8
200004e4:	1946      	adds	r6, r0, r5
200004e6:	eba2 0800 	sub.w	r8, r2, r0
200004ea:	42b4      	cmp	r4, r6
200004ec:	eb08 0104 	add.w	r1, r8, r4
200004f0:	d107      	bne.n	20000502 <Write+0x36>
200004f2:	463a      	mov	r2, r7
200004f4:	eb09 0105 	add.w	r1, r9, r5
200004f8:	e001      	b.n	200004fe <Write+0x32>
200004fa:	460a      	mov	r2, r1
200004fc:	4649      	mov	r1, r9
200004fe:	4620      	mov	r0, r4
20000500:	e019      	b.n	20000536 <Write+0x6a>
20000502:	f44f 7280 	mov.w	r2, #256	; 0x100
20000506:	4620      	mov	r0, r4
20000508:	f000 fae0 	bl	20000acc <W25Q128JV_Write>
2000050c:	f504 7480 	add.w	r4, r4, #256	; 0x100
20000510:	f000 f9a8 	bl	20000864 <W25Q128JV_AutoPollingMemReady>
20000514:	e7e9      	b.n	200004ea <Write+0x1e>
20000516:	f5c5 7580 	rsb	r5, r5, #256	; 0x100
2000051a:	b99b      	cbnz	r3, 20000544 <Write+0x78>
2000051c:	42bd      	cmp	r5, r7
2000051e:	d2ec      	bcs.n	200004fa <Write+0x2e>
20000520:	462a      	mov	r2, r5
20000522:	4649      	mov	r1, r9
20000524:	1b7f      	subs	r7, r7, r5
20000526:	f000 fad1 	bl	20000acc <W25Q128JV_Write>
2000052a:	f000 f99b 	bl	20000864 <W25Q128JV_AutoPollingMemReady>
2000052e:	463a      	mov	r2, r7
20000530:	eb09 0105 	add.w	r1, r9, r5
20000534:	1960      	adds	r0, r4, r5
20000536:	f000 fac9 	bl	20000acc <W25Q128JV_Write>
2000053a:	f000 f993 	bl	20000864 <W25Q128JV_AutoPollingMemReady>
2000053e:	2001      	movs	r0, #1
20000540:	e8bd 83f8 	ldmia.w	sp!, {r3, r4, r5, r6, r7, r8, r9, pc}
20000544:	eba1 0805 	sub.w	r8, r1, r5
20000548:	462a      	mov	r2, r5
2000054a:	4649      	mov	r1, r9
2000054c:	f000 fabe 	bl	20000acc <W25Q128JV_Write>
20000550:	f000 f988 	bl	20000864 <W25Q128JV_AutoPollingMemReady>
20000554:	442c      	add	r4, r5
20000556:	f028 06ff 	bic.w	r6, r8, #255	; 0xff
2000055a:	444d      	add	r5, r9
2000055c:	fa5f f788 	uxtb.w	r7, r8
20000560:	eba5 0904 	sub.w	r9, r5, r4
20000564:	eb04 0806 	add.w	r8, r4, r6
20000568:	4544      	cmp	r4, r8
2000056a:	eb09 0104 	add.w	r1, r9, r4
2000056e:	d104      	bne.n	2000057a <Write+0xae>
20000570:	19a9      	adds	r1, r5, r6
20000572:	2f00      	cmp	r7, #0
20000574:	d0e3      	beq.n	2000053e <Write+0x72>
20000576:	463a      	mov	r2, r7
20000578:	e7c1      	b.n	200004fe <Write+0x32>
2000057a:	f44f 7280 	mov.w	r2, #256	; 0x100
2000057e:	4620      	mov	r0, r4
20000580:	f000 faa4 	bl	20000acc <W25Q128JV_Write>
20000584:	f504 7480 	add.w	r4, r4, #256	; 0x100
20000588:	f000 f96c 	bl	20000864 <W25Q128JV_AutoPollingMemReady>
2000058c:	e7ec      	b.n	20000568 <Write+0x9c>

2000058e <SectorErase>:
2000058e:	b538      	push	{r3, r4, r5, lr}
20000590:	0c04      	lsrs	r4, r0, #16
20000592:	460d      	mov	r5, r1
20000594:	0424      	lsls	r4, r4, #16
20000596:	42ac      	cmp	r4, r5
20000598:	d901      	bls.n	2000059e <SectorErase+0x10>
2000059a:	2001      	movs	r0, #1
2000059c:	bd38      	pop	{r3, r4, r5, pc}
2000059e:	f024 4070 	bic.w	r0, r4, #4026531840	; 0xf0000000
200005a2:	f000 fa5f 	bl	20000a64 <W25Q128JV_EraseBlock>
200005a6:	f504 3480 	add.w	r4, r4, #65536	; 0x10000
200005aa:	f000 f95b 	bl	20000864 <W25Q128JV_AutoPollingMemReady>
200005ae:	e7f2      	b.n	20000596 <SectorErase+0x8>

200005b0 <MassErase>:
200005b0:	b510      	push	{r4, lr}
200005b2:	2400      	movs	r4, #0
200005b4:	4620      	mov	r0, r4
200005b6:	f504 3480 	add.w	r4, r4, #65536	; 0x10000
200005ba:	f000 fa53 	bl	20000a64 <W25Q128JV_EraseBlock>
200005be:	f000 f951 	bl	20000864 <W25Q128JV_AutoPollingMemReady>
200005c2:	f1b4 7f80 	cmp.w	r4, #16777216	; 0x1000000
200005c6:	d1f5      	bne.n	200005b4 <MassErase+0x4>
200005c8:	2001      	movs	r0, #1
200005ca:	bd10      	pop	{r4, pc}

200005cc <Read>:
200005cc:	b570      	push	{r4, r5, r6, lr}
200005ce:	4614      	mov	r4, r2
200005d0:	4606      	mov	r6, r0
200005d2:	460d      	mov	r5, r1
200005d4:	4425      	add	r5, r4
200005d6:	f000 fbad 	bl	20000d34 <W25Q128JV_MemoryMapped>
200005da:	1b36      	subs	r6, r6, r4
200005dc:	4622      	mov	r2, r4
200005de:	42aa      	cmp	r2, r5
200005e0:	d101      	bne.n	200005e6 <Read+0x1a>
200005e2:	2001      	movs	r0, #1
200005e4:	bd70      	pop	{r4, r5, r6, pc}
200005e6:	5d93      	ldrb	r3, [r2, r6]
200005e8:	f802 3b01 	strb.w	r3, [r2], #1
200005ec:	e7f7      	b.n	200005de <Read+0x12>

200005ee <Verify>:
200005ee:	b5f8      	push	{r3, r4, r5, r6, r7, lr}
200005f0:	4604      	mov	r4, r0
200005f2:	460e      	mov	r6, r1
200005f4:	0095      	lsls	r5, r2, #2
200005f6:	f000 fb9d 	bl	20000d34 <W25Q128JV_MemoryMapped>
200005fa:	2000      	movs	r0, #0
200005fc:	1c63      	adds	r3, r4, #1
200005fe:	42a8      	cmp	r0, r5
20000600:	d101      	bne.n	20000606 <Verify+0x18>
20000602:	2000      	movs	r0, #0
20000604:	e006      	b.n	20000614 <Verify+0x26>
20000606:	5d07      	ldrb	r7, [r0, r4]
20000608:	5d81      	ldrb	r1, [r0, r6]
2000060a:	428f      	cmp	r7, r1
2000060c:	eb03 0200 	add.w	r2, r3, r0
20000610:	d001      	beq.n	20000616 <Verify+0x28>
20000612:	4410      	add	r0, r2
20000614:	bdf8      	pop	{r3, r4, r5, r6, r7, pc}
20000616:	3001      	adds	r0, #1
20000618:	e7f1      	b.n	200005fe <Verify+0x10>

2000061a <Error_Handler>:
2000061a:	4770      	bx	lr

2000061c <HAL_MspInit>:
2000061c:	b082      	sub	sp, #8
2000061e:	4b0c      	ldr	r3, [pc, #48]	; (20000650 <HAL_MspInit+0x34>)
20000620:	2100      	movs	r1, #0
20000622:	9100      	str	r1, [sp, #0]
20000624:	6c5a      	ldr	r2, [r3, #68]	; 0x44
20000626:	f442 4280 	orr.w	r2, r2, #16384	; 0x4000
2000062a:	645a      	str	r2, [r3, #68]	; 0x44
2000062c:	6c5a      	ldr	r2, [r3, #68]	; 0x44
2000062e:	f402 4280 	and.w	r2, r2, #16384	; 0x4000
20000632:	9200      	str	r2, [sp, #0]
20000634:	9a00      	ldr	r2, [sp, #0]
20000636:	9101      	str	r1, [sp, #4]
20000638:	6c1a      	ldr	r2, [r3, #64]	; 0x40
2000063a:	f042 5280 	orr.w	r2, r2, #268435456	; 0x10000000
2000063e:	641a      	str	r2, [r3, #64]	; 0x40
20000640:	6c1b      	ldr	r3, [r3, #64]	; 0x40
20000642:	f003 5380 	and.w	r3, r3, #268435456	; 0x10000000
20000646:	9301      	str	r3, [sp, #4]
20000648:	9b01      	ldr	r3, [sp, #4]
2000064a:	b002      	add	sp, #8
2000064c:	4770      	bx	lr
2000064e:	bf00      	nop
20000650:	40023800 	.word	0x40023800

20000654 <HAL_QSPI_MspInit>:
20000654:	e92d 41f0 	stmdb	sp!, {r4, r5, r6, r7, r8, lr}
20000658:	2214      	movs	r2, #20
2000065a:	b08a      	sub	sp, #40	; 0x28
2000065c:	4604      	mov	r4, r0
2000065e:	2100      	movs	r1, #0
20000660:	eb0d 0002 	add.w	r0, sp, r2
20000664:	f002 fd10 	bl	20003088 <memset>
20000668:	6822      	ldr	r2, [r4, #0]
2000066a:	4b2e      	ldr	r3, [pc, #184]	; (20000724 <HAL_QSPI_MspInit+0xd0>)
2000066c:	429a      	cmp	r2, r3
2000066e:	d156      	bne.n	2000071e <HAL_QSPI_MspInit+0xca>
20000670:	4b2d      	ldr	r3, [pc, #180]	; (20000728 <HAL_QSPI_MspInit+0xd4>)
20000672:	482e      	ldr	r0, [pc, #184]	; (2000072c <HAL_QSPI_MspInit+0xd8>)
20000674:	2400      	movs	r4, #0
20000676:	9401      	str	r4, [sp, #4]
20000678:	6b9a      	ldr	r2, [r3, #56]	; 0x38
2000067a:	f042 0202 	orr.w	r2, r2, #2
2000067e:	639a      	str	r2, [r3, #56]	; 0x38
20000680:	6b9a      	ldr	r2, [r3, #56]	; 0x38
20000682:	f002 0202 	and.w	r2, r2, #2
20000686:	9201      	str	r2, [sp, #4]
20000688:	9a01      	ldr	r2, [sp, #4]
2000068a:	9402      	str	r4, [sp, #8]
2000068c:	6b1a      	ldr	r2, [r3, #48]	; 0x30
2000068e:	f042 0210 	orr.w	r2, r2, #16
20000692:	631a      	str	r2, [r3, #48]	; 0x30
20000694:	6b1a      	ldr	r2, [r3, #48]	; 0x30
20000696:	f002 0210 	and.w	r2, r2, #16
2000069a:	9202      	str	r2, [sp, #8]
2000069c:	9a02      	ldr	r2, [sp, #8]
2000069e:	9403      	str	r4, [sp, #12]
200006a0:	6b1a      	ldr	r2, [r3, #48]	; 0x30
200006a2:	f042 0202 	orr.w	r2, r2, #2
200006a6:	631a      	str	r2, [r3, #48]	; 0x30
200006a8:	6b1a      	ldr	r2, [r3, #48]	; 0x30
200006aa:	f002 0202 	and.w	r2, r2, #2
200006ae:	9203      	str	r2, [sp, #12]
200006b0:	9a03      	ldr	r2, [sp, #12]
200006b2:	9404      	str	r4, [sp, #16]
200006b4:	6b1a      	ldr	r2, [r3, #48]	; 0x30
200006b6:	f042 0208 	orr.w	r2, r2, #8
200006ba:	631a      	str	r2, [r3, #48]	; 0x30
200006bc:	6b1b      	ldr	r3, [r3, #48]	; 0x30
200006be:	f003 0308 	and.w	r3, r3, #8
200006c2:	2602      	movs	r6, #2
200006c4:	2503      	movs	r5, #3
200006c6:	2709      	movs	r7, #9
200006c8:	9304      	str	r3, [sp, #16]
200006ca:	f04f 0804 	mov.w	r8, #4
200006ce:	a905      	add	r1, sp, #20
200006d0:	9b04      	ldr	r3, [sp, #16]
200006d2:	e9cd 8605 	strd	r8, r6, [sp, #20]
200006d6:	e9cd 5708 	strd	r5, r7, [sp, #32]
200006da:	f001 f8b1 	bl	20001840 <HAL_GPIO_Init>
200006de:	a905      	add	r1, sp, #20
200006e0:	4813      	ldr	r0, [pc, #76]	; (20000730 <HAL_QSPI_MspInit+0xdc>)
200006e2:	9709      	str	r7, [sp, #36]	; 0x24
200006e4:	e9cd 8605 	strd	r8, r6, [sp, #20]
200006e8:	e9cd 4507 	strd	r4, r5, [sp, #28]
200006ec:	f001 f8a8 	bl	20001840 <HAL_GPIO_Init>
200006f0:	f44f 5360 	mov.w	r3, #14336	; 0x3800
200006f4:	a905      	add	r1, sp, #20
200006f6:	480f      	ldr	r0, [pc, #60]	; (20000734 <HAL_QSPI_MspInit+0xe0>)
200006f8:	9709      	str	r7, [sp, #36]	; 0x24
200006fa:	e9cd 3605 	strd	r3, r6, [sp, #20]
200006fe:	e9cd 4507 	strd	r4, r5, [sp, #28]
20000702:	f001 f89d 	bl	20001840 <HAL_GPIO_Init>
20000706:	2340      	movs	r3, #64	; 0x40
20000708:	e9cd 3605 	strd	r3, r6, [sp, #20]
2000070c:	2301      	movs	r3, #1
2000070e:	e9cd 3507 	strd	r3, r5, [sp, #28]
20000712:	a905      	add	r1, sp, #20
20000714:	230a      	movs	r3, #10
20000716:	4806      	ldr	r0, [pc, #24]	; (20000730 <HAL_QSPI_MspInit+0xdc>)
20000718:	9309      	str	r3, [sp, #36]	; 0x24
2000071a:	f001 f891 	bl	20001840 <HAL_GPIO_Init>
2000071e:	b00a      	add	sp, #40	; 0x28
20000720:	e8bd 81f0 	ldmia.w	sp!, {r4, r5, r6, r7, r8, pc}
20000724:	a0001000 	.word	0xa0001000
20000728:	40023800 	.word	0x40023800
2000072c:	40021000 	.word	0x40021000
20000730:	40020400 	.word	0x40020400
20000734:	40020c00 	.word	0x40020c00

20000738 <HAL_QSPI_MspDeInit>:
20000738:	b508      	push	{r3, lr}
2000073a:	6802      	ldr	r2, [r0, #0]
2000073c:	4b0b      	ldr	r3, [pc, #44]	; (2000076c <HAL_QSPI_MspDeInit+0x34>)
2000073e:	429a      	cmp	r2, r3
20000740:	d113      	bne.n	2000076a <HAL_QSPI_MspDeInit+0x32>
20000742:	4a0b      	ldr	r2, [pc, #44]	; (20000770 <HAL_QSPI_MspDeInit+0x38>)
20000744:	480b      	ldr	r0, [pc, #44]	; (20000774 <HAL_QSPI_MspDeInit+0x3c>)
20000746:	6b93      	ldr	r3, [r2, #56]	; 0x38
20000748:	f023 0302 	bic.w	r3, r3, #2
2000074c:	6393      	str	r3, [r2, #56]	; 0x38
2000074e:	2104      	movs	r1, #4
20000750:	f001 f950 	bl	200019f4 <HAL_GPIO_DeInit>
20000754:	2144      	movs	r1, #68	; 0x44
20000756:	4808      	ldr	r0, [pc, #32]	; (20000778 <HAL_QSPI_MspDeInit+0x40>)
20000758:	f001 f94c 	bl	200019f4 <HAL_GPIO_DeInit>
2000075c:	f44f 5160 	mov.w	r1, #14336	; 0x3800
20000760:	4806      	ldr	r0, [pc, #24]	; (2000077c <HAL_QSPI_MspDeInit+0x44>)
20000762:	e8bd 4008 	ldmia.w	sp!, {r3, lr}
20000766:	f001 b945 	b.w	200019f4 <HAL_GPIO_DeInit>
2000076a:	bd08      	pop	{r3, pc}
2000076c:	a0001000 	.word	0xa0001000
20000770:	40023800 	.word	0x40023800
20000774:	40021000 	.word	0x40021000
20000778:	40020400 	.word	0x40020400
2000077c:	40020c00 	.word	0x40020c00

20000780 <SystemInit>:
20000780:	4770      	bx	lr
	...

20000784 <SystemCoreClockUpdate>:
20000784:	4a17      	ldr	r2, [pc, #92]	; (200007e4 <SystemCoreClockUpdate+0x60>)
20000786:	4918      	ldr	r1, [pc, #96]	; (200007e8 <SystemCoreClockUpdate+0x64>)
20000788:	6893      	ldr	r3, [r2, #8]
2000078a:	f003 030c 	and.w	r3, r3, #12
2000078e:	2b04      	cmp	r3, #4
20000790:	b510      	push	{r4, lr}
20000792:	d00d      	beq.n	200007b0 <SystemCoreClockUpdate+0x2c>
20000794:	2b08      	cmp	r3, #8
20000796:	d00d      	beq.n	200007b4 <SystemCoreClockUpdate+0x30>
20000798:	4b14      	ldr	r3, [pc, #80]	; (200007ec <SystemCoreClockUpdate+0x68>)
2000079a:	600b      	str	r3, [r1, #0]
2000079c:	4b11      	ldr	r3, [pc, #68]	; (200007e4 <SystemCoreClockUpdate+0x60>)
2000079e:	4a14      	ldr	r2, [pc, #80]	; (200007f0 <SystemCoreClockUpdate+0x6c>)
200007a0:	689b      	ldr	r3, [r3, #8]
200007a2:	f3c3 1303 	ubfx	r3, r3, #4, #4
200007a6:	5cd2      	ldrb	r2, [r2, r3]
200007a8:	680b      	ldr	r3, [r1, #0]
200007aa:	40d3      	lsrs	r3, r2
200007ac:	600b      	str	r3, [r1, #0]
200007ae:	bd10      	pop	{r4, pc}
200007b0:	4b10      	ldr	r3, [pc, #64]	; (200007f4 <SystemCoreClockUpdate+0x70>)
200007b2:	e7f2      	b.n	2000079a <SystemCoreClockUpdate+0x16>
200007b4:	6854      	ldr	r4, [r2, #4]
200007b6:	6850      	ldr	r0, [r2, #4]
200007b8:	6852      	ldr	r2, [r2, #4]
200007ba:	0263      	lsls	r3, r4, #9
200007bc:	f3c2 1288 	ubfx	r2, r2, #6, #9
200007c0:	f000 003f 	and.w	r0, r0, #63	; 0x3f
200007c4:	bf4c      	ite	mi
200007c6:	4b0b      	ldrmi	r3, [pc, #44]	; (200007f4 <SystemCoreClockUpdate+0x70>)
200007c8:	4b08      	ldrpl	r3, [pc, #32]	; (200007ec <SystemCoreClockUpdate+0x68>)
200007ca:	fbb3 f3f0 	udiv	r3, r3, r0
200007ce:	4353      	muls	r3, r2
200007d0:	4a04      	ldr	r2, [pc, #16]	; (200007e4 <SystemCoreClockUpdate+0x60>)
200007d2:	6852      	ldr	r2, [r2, #4]
200007d4:	f3c2 4201 	ubfx	r2, r2, #16, #2
200007d8:	3201      	adds	r2, #1
200007da:	0052      	lsls	r2, r2, #1
200007dc:	fbb3 f3f2 	udiv	r3, r3, r2
200007e0:	e7db      	b.n	2000079a <SystemCoreClockUpdate+0x16>
200007e2:	bf00      	nop
200007e4:	40023800 	.word	0x40023800
200007e8:	20003938 	.word	0x20003938
200007ec:	00f42400 	.word	0x00f42400
200007f0:	20003910 	.word	0x20003910
200007f4:	017d7840 	.word	0x017d7840

200007f8 <QSPI_WriteEnable.constprop.0>:
200007f8:	b510      	push	{r4, lr}
200007fa:	b094      	sub	sp, #80	; 0x50
200007fc:	2234      	movs	r2, #52	; 0x34
200007fe:	2100      	movs	r1, #0
20000800:	a807      	add	r0, sp, #28
20000802:	f002 fc41 	bl	20003088 <memset>
20000806:	2218      	movs	r2, #24
20000808:	2100      	movs	r1, #0
2000080a:	4668      	mov	r0, sp
2000080c:	f002 fc3c 	bl	20003088 <memset>
20000810:	ac14      	add	r4, sp, #80	; 0x50
20000812:	f44f 7380 	mov.w	r3, #256	; 0x100
20000816:	930c      	str	r3, [sp, #48]	; 0x30
20000818:	2306      	movs	r3, #6
2000081a:	f844 3d38 	str.w	r3, [r4, #-56]!
2000081e:	f241 3288 	movw	r2, #5000	; 0x1388
20000822:	4621      	mov	r1, r4
20000824:	480e      	ldr	r0, [pc, #56]	; (20000860 <QSPI_WriteEnable.constprop.0+0x68>)
20000826:	f001 fbc9 	bl	20001fbc <HAL_QSPI_Command>
2000082a:	b9b0      	cbnz	r0, 2000085a <QSPI_WriteEnable.constprop.0+0x62>
2000082c:	2302      	movs	r3, #2
2000082e:	2201      	movs	r2, #1
20000830:	e9cd 3300 	strd	r3, r3, [sp]
20000834:	2310      	movs	r3, #16
20000836:	e9cd 3202 	strd	r3, r2, [sp, #8]
2000083a:	f44f 0180 	mov.w	r1, #4194304	; 0x400000
2000083e:	2305      	movs	r3, #5
20000840:	e9cd 1305 	strd	r1, r3, [sp, #20]
20000844:	f04f 7380 	mov.w	r3, #16777216	; 0x1000000
20000848:	9004      	str	r0, [sp, #16]
2000084a:	930f      	str	r3, [sp, #60]	; 0x3c
2000084c:	466a      	mov	r2, sp
2000084e:	f241 3388 	movw	r3, #5000	; 0x1388
20000852:	4621      	mov	r1, r4
20000854:	4802      	ldr	r0, [pc, #8]	; (20000860 <QSPI_WriteEnable.constprop.0+0x68>)
20000856:	f001 fdc3 	bl	200023e0 <HAL_QSPI_AutoPolling>
2000085a:	b014      	add	sp, #80	; 0x50
2000085c:	bd10      	pop	{r4, pc}
2000085e:	bf00      	nop
20000860:	20003948 	.word	0x20003948

20000864 <W25Q128JV_AutoPollingMemReady>:
20000864:	b530      	push	{r4, r5, lr}
20000866:	b095      	sub	sp, #84	; 0x54
20000868:	2238      	movs	r2, #56	; 0x38
2000086a:	2100      	movs	r1, #0
2000086c:	a806      	add	r0, sp, #24
2000086e:	4c15      	ldr	r4, [pc, #84]	; (200008c4 <W25Q128JV_AutoPollingMemReady+0x60>)
20000870:	f002 fc0a 	bl	20003088 <memset>
20000874:	2218      	movs	r2, #24
20000876:	2100      	movs	r1, #0
20000878:	4668      	mov	r0, sp
2000087a:	f002 fc05 	bl	20003088 <memset>
2000087e:	7820      	ldrb	r0, [r4, #0]
20000880:	2802      	cmp	r0, #2
20000882:	d01b      	beq.n	200008bc <W25Q128JV_AutoPollingMemReady+0x58>
20000884:	b1e0      	cbz	r0, 200008c0 <W25Q128JV_AutoPollingMemReady+0x5c>
20000886:	2302      	movs	r3, #2
20000888:	7023      	strb	r3, [r4, #0]
2000088a:	f44f 7380 	mov.w	r3, #256	; 0x100
2000088e:	930c      	str	r3, [sp, #48]	; 0x30
20000890:	2305      	movs	r3, #5
20000892:	9306      	str	r3, [sp, #24]
20000894:	f04f 7380 	mov.w	r3, #16777216	; 0x1000000
20000898:	930f      	str	r3, [sp, #60]	; 0x3c
2000089a:	2310      	movs	r3, #16
2000089c:	9302      	str	r3, [sp, #8]
2000089e:	f44f 0380 	mov.w	r3, #4194304	; 0x400000
200008a2:	2501      	movs	r5, #1
200008a4:	9305      	str	r3, [sp, #20]
200008a6:	466a      	mov	r2, sp
200008a8:	f241 3388 	movw	r3, #5000	; 0x1388
200008ac:	a906      	add	r1, sp, #24
200008ae:	4806      	ldr	r0, [pc, #24]	; (200008c8 <W25Q128JV_AutoPollingMemReady+0x64>)
200008b0:	9501      	str	r5, [sp, #4]
200008b2:	9503      	str	r5, [sp, #12]
200008b4:	f001 fd94 	bl	200023e0 <HAL_QSPI_AutoPolling>
200008b8:	b900      	cbnz	r0, 200008bc <W25Q128JV_AutoPollingMemReady+0x58>
200008ba:	7025      	strb	r5, [r4, #0]
200008bc:	b015      	add	sp, #84	; 0x54
200008be:	bd30      	pop	{r4, r5, pc}
200008c0:	2001      	movs	r0, #1
200008c2:	e7fb      	b.n	200008bc <W25Q128JV_AutoPollingMemReady+0x58>
200008c4:	20003946 	.word	0x20003946
200008c8:	20003948 	.word	0x20003948

200008cc <W25Q128JV_Init>:
200008cc:	e92d 41f0 	stmdb	sp!, {r4, r5, r6, r7, r8, lr}
200008d0:	4d62      	ldr	r5, [pc, #392]	; (20000a5c <W25Q128JV_Init+0x190>)
200008d2:	b090      	sub	sp, #64	; 0x40
200008d4:	2238      	movs	r2, #56	; 0x38
200008d6:	2100      	movs	r1, #0
200008d8:	a802      	add	r0, sp, #8
200008da:	f002 fbd5 	bl	20003088 <memset>
200008de:	782b      	ldrb	r3, [r5, #0]
200008e0:	462e      	mov	r6, r5
200008e2:	2b00      	cmp	r3, #0
200008e4:	f040 80b7 	bne.w	20000a56 <W25Q128JV_Init+0x18a>
200008e8:	2302      	movs	r3, #2
200008ea:	702b      	strb	r3, [r5, #0]
200008ec:	f44f 7780 	mov.w	r7, #256	; 0x100
200008f0:	2366      	movs	r3, #102	; 0x66
200008f2:	f241 3288 	movw	r2, #5000	; 0x1388
200008f6:	a902      	add	r1, sp, #8
200008f8:	4859      	ldr	r0, [pc, #356]	; (20000a60 <W25Q128JV_Init+0x194>)
200008fa:	9708      	str	r7, [sp, #32]
200008fc:	9302      	str	r3, [sp, #8]
200008fe:	f001 fb5d 	bl	20001fbc <HAL_QSPI_Command>
20000902:	4604      	mov	r4, r0
20000904:	b128      	cbz	r0, 20000912 <W25Q128JV_Init+0x46>
20000906:	2301      	movs	r3, #1
20000908:	702b      	strb	r3, [r5, #0]
2000090a:	4620      	mov	r0, r4
2000090c:	b010      	add	sp, #64	; 0x40
2000090e:	e8bd 81f0 	ldmia.w	sp!, {r4, r5, r6, r7, r8, pc}
20000912:	2399      	movs	r3, #153	; 0x99
20000914:	e9cd 0009 	strd	r0, r0, [sp, #36]	; 0x24
20000918:	900b      	str	r0, [sp, #44]	; 0x2c
2000091a:	9007      	str	r0, [sp, #28]
2000091c:	e9cd 000d 	strd	r0, r0, [sp, #52]	; 0x34
20000920:	900f      	str	r0, [sp, #60]	; 0x3c
20000922:	f241 3288 	movw	r2, #5000	; 0x1388
20000926:	a902      	add	r1, sp, #8
20000928:	484d      	ldr	r0, [pc, #308]	; (20000a60 <W25Q128JV_Init+0x194>)
2000092a:	9708      	str	r7, [sp, #32]
2000092c:	9302      	str	r3, [sp, #8]
2000092e:	f001 fb45 	bl	20001fbc <HAL_QSPI_Command>
20000932:	4604      	mov	r4, r0
20000934:	2800      	cmp	r0, #0
20000936:	d1e6      	bne.n	20000906 <W25Q128JV_Init+0x3a>
20000938:	9001      	str	r0, [sp, #4]
2000093a:	f242 720f 	movw	r2, #9999	; 0x270f
2000093e:	9b01      	ldr	r3, [sp, #4]
20000940:	4293      	cmp	r3, r2
20000942:	d91b      	bls.n	2000097c <W25Q128JV_Init+0xb0>
20000944:	2335      	movs	r3, #53	; 0x35
20000946:	9302      	str	r3, [sp, #8]
20000948:	f44f 7880 	mov.w	r8, #256	; 0x100
2000094c:	2300      	movs	r3, #0
2000094e:	f04f 7780 	mov.w	r7, #16777216	; 0x1000000
20000952:	2501      	movs	r5, #1
20000954:	f241 3288 	movw	r2, #5000	; 0x1388
20000958:	a902      	add	r1, sp, #8
2000095a:	4841      	ldr	r0, [pc, #260]	; (20000a60 <W25Q128JV_Init+0x194>)
2000095c:	f8cd 8020 	str.w	r8, [sp, #32]
20000960:	e9cd 3309 	strd	r3, r3, [sp, #36]	; 0x24
20000964:	970b      	str	r7, [sp, #44]	; 0x2c
20000966:	9307      	str	r3, [sp, #28]
20000968:	e9cd 330d 	strd	r3, r3, [sp, #52]	; 0x34
2000096c:	930f      	str	r3, [sp, #60]	; 0x3c
2000096e:	950c      	str	r5, [sp, #48]	; 0x30
20000970:	f001 fb24 	bl	20001fbc <HAL_QSPI_Command>
20000974:	4604      	mov	r4, r0
20000976:	b130      	cbz	r0, 20000986 <W25Q128JV_Init+0xba>
20000978:	7035      	strb	r5, [r6, #0]
2000097a:	e7c6      	b.n	2000090a <W25Q128JV_Init+0x3e>
2000097c:	bf00      	nop
2000097e:	9b01      	ldr	r3, [sp, #4]
20000980:	3301      	adds	r3, #1
20000982:	9301      	str	r3, [sp, #4]
20000984:	e7db      	b.n	2000093e <W25Q128JV_Init+0x72>
20000986:	f241 3288 	movw	r2, #5000	; 0x1388
2000098a:	f10d 0103 	add.w	r1, sp, #3
2000098e:	4834      	ldr	r0, [pc, #208]	; (20000a60 <W25Q128JV_Init+0x194>)
20000990:	f001 fede 	bl	20002750 <HAL_QSPI_Receive>
20000994:	4604      	mov	r4, r0
20000996:	2800      	cmp	r0, #0
20000998:	d1ee      	bne.n	20000978 <W25Q128JV_Init+0xac>
2000099a:	900b      	str	r0, [sp, #44]	; 0x2c
2000099c:	2350      	movs	r3, #80	; 0x50
2000099e:	f241 3288 	movw	r2, #5000	; 0x1388
200009a2:	a902      	add	r1, sp, #8
200009a4:	482e      	ldr	r0, [pc, #184]	; (20000a60 <W25Q128JV_Init+0x194>)
200009a6:	9302      	str	r3, [sp, #8]
200009a8:	f001 fb08 	bl	20001fbc <HAL_QSPI_Command>
200009ac:	b110      	cbz	r0, 200009b4 <W25Q128JV_Init+0xe8>
200009ae:	2301      	movs	r3, #1
200009b0:	7033      	strb	r3, [r6, #0]
200009b2:	e7aa      	b.n	2000090a <W25Q128JV_Init+0x3e>
200009b4:	2331      	movs	r3, #49	; 0x31
200009b6:	9302      	str	r3, [sp, #8]
200009b8:	f89d 3003 	ldrb.w	r3, [sp, #3]
200009bc:	4828      	ldr	r0, [pc, #160]	; (20000a60 <W25Q128JV_Init+0x194>)
200009be:	970b      	str	r7, [sp, #44]	; 0x2c
200009c0:	f043 0302 	orr.w	r3, r3, #2
200009c4:	f241 3288 	movw	r2, #5000	; 0x1388
200009c8:	a902      	add	r1, sp, #8
200009ca:	f88d 3003 	strb.w	r3, [sp, #3]
200009ce:	f001 faf5 	bl	20001fbc <HAL_QSPI_Command>
200009d2:	2800      	cmp	r0, #0
200009d4:	d1eb      	bne.n	200009ae <W25Q128JV_Init+0xe2>
200009d6:	f241 3288 	movw	r2, #5000	; 0x1388
200009da:	f10d 0103 	add.w	r1, sp, #3
200009de:	4820      	ldr	r0, [pc, #128]	; (20000a60 <W25Q128JV_Init+0x194>)
200009e0:	f001 fe58 	bl	20002694 <HAL_QSPI_Transmit>
200009e4:	2800      	cmp	r0, #0
200009e6:	d1e2      	bne.n	200009ae <W25Q128JV_Init+0xe2>
200009e8:	2315      	movs	r3, #21
200009ea:	f241 3288 	movw	r2, #5000	; 0x1388
200009ee:	a902      	add	r1, sp, #8
200009f0:	481b      	ldr	r0, [pc, #108]	; (20000a60 <W25Q128JV_Init+0x194>)
200009f2:	f8cd 8020 	str.w	r8, [sp, #32]
200009f6:	9302      	str	r3, [sp, #8]
200009f8:	e9cd 4409 	strd	r4, r4, [sp, #36]	; 0x24
200009fc:	970b      	str	r7, [sp, #44]	; 0x2c
200009fe:	9407      	str	r4, [sp, #28]
20000a00:	e9cd 440d 	strd	r4, r4, [sp, #52]	; 0x34
20000a04:	940f      	str	r4, [sp, #60]	; 0x3c
20000a06:	950c      	str	r5, [sp, #48]	; 0x30
20000a08:	f001 fad8 	bl	20001fbc <HAL_QSPI_Command>
20000a0c:	b110      	cbz	r0, 20000a14 <W25Q128JV_Init+0x148>
20000a0e:	7035      	strb	r5, [r6, #0]
20000a10:	4604      	mov	r4, r0
20000a12:	e77a      	b.n	2000090a <W25Q128JV_Init+0x3e>
20000a14:	f241 3288 	movw	r2, #5000	; 0x1388
20000a18:	f10d 0103 	add.w	r1, sp, #3
20000a1c:	4810      	ldr	r0, [pc, #64]	; (20000a60 <W25Q128JV_Init+0x194>)
20000a1e:	f001 fe97 	bl	20002750 <HAL_QSPI_Receive>
20000a22:	2800      	cmp	r0, #0
20000a24:	d1f3      	bne.n	20000a0e <W25Q128JV_Init+0x142>
20000a26:	2311      	movs	r3, #17
20000a28:	9302      	str	r3, [sp, #8]
20000a2a:	f89d 3003 	ldrb.w	r3, [sp, #3]
20000a2e:	480c      	ldr	r0, [pc, #48]	; (20000a60 <W25Q128JV_Init+0x194>)
20000a30:	f023 0360 	bic.w	r3, r3, #96	; 0x60
20000a34:	f241 3288 	movw	r2, #5000	; 0x1388
20000a38:	a902      	add	r1, sp, #8
20000a3a:	f88d 3003 	strb.w	r3, [sp, #3]
20000a3e:	f001 fabd 	bl	20001fbc <HAL_QSPI_Command>
20000a42:	2800      	cmp	r0, #0
20000a44:	d1b3      	bne.n	200009ae <W25Q128JV_Init+0xe2>
20000a46:	f241 3288 	movw	r2, #5000	; 0x1388
20000a4a:	f10d 0103 	add.w	r1, sp, #3
20000a4e:	4804      	ldr	r0, [pc, #16]	; (20000a60 <W25Q128JV_Init+0x194>)
20000a50:	f001 fe20 	bl	20002694 <HAL_QSPI_Transmit>
20000a54:	e7ab      	b.n	200009ae <W25Q128JV_Init+0xe2>
20000a56:	2401      	movs	r4, #1
20000a58:	e757      	b.n	2000090a <W25Q128JV_Init+0x3e>
20000a5a:	bf00      	nop
20000a5c:	20003946 	.word	0x20003946
20000a60:	20003948 	.word	0x20003948

20000a64 <W25Q128JV_EraseBlock>:
20000a64:	b530      	push	{r4, r5, lr}
20000a66:	4c17      	ldr	r4, [pc, #92]	; (20000ac4 <W25Q128JV_EraseBlock+0x60>)
20000a68:	b08f      	sub	sp, #60	; 0x3c
20000a6a:	4605      	mov	r5, r0
20000a6c:	2238      	movs	r2, #56	; 0x38
20000a6e:	2100      	movs	r1, #0
20000a70:	4668      	mov	r0, sp
20000a72:	f002 fb09 	bl	20003088 <memset>
20000a76:	7820      	ldrb	r0, [r4, #0]
20000a78:	2802      	cmp	r0, #2
20000a7a:	d00f      	beq.n	20000a9c <W25Q128JV_EraseBlock+0x38>
20000a7c:	b1f8      	cbz	r0, 20000abe <W25Q128JV_EraseBlock+0x5a>
20000a7e:	b2ab      	uxth	r3, r5
20000a80:	b9eb      	cbnz	r3, 20000abe <W25Q128JV_EraseBlock+0x5a>
20000a82:	2302      	movs	r3, #2
20000a84:	7023      	strb	r3, [r4, #0]
20000a86:	f44f 7380 	mov.w	r3, #256	; 0x100
20000a8a:	9306      	str	r3, [sp, #24]
20000a8c:	f44f 5300 	mov.w	r3, #8192	; 0x2000
20000a90:	9303      	str	r3, [sp, #12]
20000a92:	f7ff feb1 	bl	200007f8 <QSPI_WriteEnable.constprop.0>
20000a96:	b118      	cbz	r0, 20000aa0 <W25Q128JV_EraseBlock+0x3c>
20000a98:	2301      	movs	r3, #1
20000a9a:	7023      	strb	r3, [r4, #0]
20000a9c:	b00f      	add	sp, #60	; 0x3c
20000a9e:	bd30      	pop	{r4, r5, pc}
20000aa0:	23d8      	movs	r3, #216	; 0xd8
20000aa2:	9300      	str	r3, [sp, #0]
20000aa4:	9009      	str	r0, [sp, #36]	; 0x24
20000aa6:	f44f 6380 	mov.w	r3, #1024	; 0x400
20000aaa:	9005      	str	r0, [sp, #20]
20000aac:	f241 3288 	movw	r2, #5000	; 0x1388
20000ab0:	4669      	mov	r1, sp
20000ab2:	4805      	ldr	r0, [pc, #20]	; (20000ac8 <W25Q128JV_EraseBlock+0x64>)
20000ab4:	9307      	str	r3, [sp, #28]
20000ab6:	9501      	str	r5, [sp, #4]
20000ab8:	f001 fa80 	bl	20001fbc <HAL_QSPI_Command>
20000abc:	e7ec      	b.n	20000a98 <W25Q128JV_EraseBlock+0x34>
20000abe:	2001      	movs	r0, #1
20000ac0:	e7ec      	b.n	20000a9c <W25Q128JV_EraseBlock+0x38>
20000ac2:	bf00      	nop
20000ac4:	20003946 	.word	0x20003946
20000ac8:	20003948 	.word	0x20003948

20000acc <W25Q128JV_Write>:
20000acc:	e92d 41f0 	stmdb	sp!, {r4, r5, r6, r7, r8, lr}
20000ad0:	4c1e      	ldr	r4, [pc, #120]	; (20000b4c <W25Q128JV_Write+0x80>)
20000ad2:	b08e      	sub	sp, #56	; 0x38
20000ad4:	4606      	mov	r6, r0
20000ad6:	4688      	mov	r8, r1
20000ad8:	4615      	mov	r5, r2
20000ada:	2100      	movs	r1, #0
20000adc:	2238      	movs	r2, #56	; 0x38
20000ade:	4668      	mov	r0, sp
20000ae0:	f002 fad2 	bl	20003088 <memset>
20000ae4:	7820      	ldrb	r0, [r4, #0]
20000ae6:	2802      	cmp	r0, #2
20000ae8:	d013      	beq.n	20000b12 <W25Q128JV_Write+0x46>
20000aea:	b368      	cbz	r0, 20000b48 <W25Q128JV_Write+0x7c>
20000aec:	f5b5 7f80 	cmp.w	r5, #256	; 0x100
20000af0:	dc2a      	bgt.n	20000b48 <W25Q128JV_Write+0x7c>
20000af2:	f016 0fff 	tst.w	r6, #255	; 0xff
20000af6:	d127      	bne.n	20000b48 <W25Q128JV_Write+0x7c>
20000af8:	f44f 7380 	mov.w	r3, #256	; 0x100
20000afc:	2702      	movs	r7, #2
20000afe:	9306      	str	r3, [sp, #24]
20000b00:	f44f 5300 	mov.w	r3, #8192	; 0x2000
20000b04:	7027      	strb	r7, [r4, #0]
20000b06:	9303      	str	r3, [sp, #12]
20000b08:	f7ff fe76 	bl	200007f8 <QSPI_WriteEnable.constprop.0>
20000b0c:	b120      	cbz	r0, 20000b18 <W25Q128JV_Write+0x4c>
20000b0e:	2301      	movs	r3, #1
20000b10:	7023      	strb	r3, [r4, #0]
20000b12:	b00e      	add	sp, #56	; 0x38
20000b14:	e8bd 81f0 	ldmia.w	sp!, {r4, r5, r6, r7, r8, pc}
20000b18:	f44f 6380 	mov.w	r3, #1024	; 0x400
20000b1c:	9307      	str	r3, [sp, #28]
20000b1e:	f241 3288 	movw	r2, #5000	; 0x1388
20000b22:	f04f 7380 	mov.w	r3, #16777216	; 0x1000000
20000b26:	4669      	mov	r1, sp
20000b28:	4809      	ldr	r0, [pc, #36]	; (20000b50 <W25Q128JV_Write+0x84>)
20000b2a:	9700      	str	r7, [sp, #0]
20000b2c:	9601      	str	r6, [sp, #4]
20000b2e:	e9cd 3509 	strd	r3, r5, [sp, #36]	; 0x24
20000b32:	f001 fa43 	bl	20001fbc <HAL_QSPI_Command>
20000b36:	2800      	cmp	r0, #0
20000b38:	d1e9      	bne.n	20000b0e <W25Q128JV_Write+0x42>
20000b3a:	f241 3288 	movw	r2, #5000	; 0x1388
20000b3e:	4641      	mov	r1, r8
20000b40:	4803      	ldr	r0, [pc, #12]	; (20000b50 <W25Q128JV_Write+0x84>)
20000b42:	f001 fda7 	bl	20002694 <HAL_QSPI_Transmit>
20000b46:	e7e2      	b.n	20000b0e <W25Q128JV_Write+0x42>
20000b48:	2001      	movs	r0, #1
20000b4a:	e7e2      	b.n	20000b12 <W25Q128JV_Write+0x46>
20000b4c:	20003946 	.word	0x20003946
20000b50:	20003948 	.word	0x20003948

20000b54 <W25Q128JV_ReadQuad>:
20000b54:	b5f0      	push	{r4, r5, r6, r7, lr}
20000b56:	4c1b      	ldr	r4, [pc, #108]	; (20000bc4 <W25Q128JV_ReadQuad+0x70>)
20000b58:	b08f      	sub	sp, #60	; 0x3c
20000b5a:	4607      	mov	r7, r0
20000b5c:	460d      	mov	r5, r1
20000b5e:	4616      	mov	r6, r2
20000b60:	2100      	movs	r1, #0
20000b62:	2238      	movs	r2, #56	; 0x38
20000b64:	4668      	mov	r0, sp
20000b66:	f002 fa8f 	bl	20003088 <memset>
20000b6a:	7820      	ldrb	r0, [r4, #0]
20000b6c:	2802      	cmp	r0, #2
20000b6e:	d01d      	beq.n	20000bac <W25Q128JV_ReadQuad+0x58>
20000b70:	b328      	cbz	r0, 20000bbe <W25Q128JV_ReadQuad+0x6a>
20000b72:	2302      	movs	r3, #2
20000b74:	7023      	strb	r3, [r4, #0]
20000b76:	f44f 7380 	mov.w	r3, #256	; 0x100
20000b7a:	9306      	str	r3, [sp, #24]
20000b7c:	f44f 5300 	mov.w	r3, #8192	; 0x2000
20000b80:	9303      	str	r3, [sp, #12]
20000b82:	236b      	movs	r3, #107	; 0x6b
20000b84:	9300      	str	r3, [sp, #0]
20000b86:	2308      	movs	r3, #8
20000b88:	9305      	str	r3, [sp, #20]
20000b8a:	f44f 6380 	mov.w	r3, #1024	; 0x400
20000b8e:	9307      	str	r3, [sp, #28]
20000b90:	f241 3288 	movw	r2, #5000	; 0x1388
20000b94:	f04f 7340 	mov.w	r3, #50331648	; 0x3000000
20000b98:	4669      	mov	r1, sp
20000b9a:	480b      	ldr	r0, [pc, #44]	; (20000bc8 <W25Q128JV_ReadQuad+0x74>)
20000b9c:	9701      	str	r7, [sp, #4]
20000b9e:	e9cd 3609 	strd	r3, r6, [sp, #36]	; 0x24
20000ba2:	f001 fa0b 	bl	20001fbc <HAL_QSPI_Command>
20000ba6:	b118      	cbz	r0, 20000bb0 <W25Q128JV_ReadQuad+0x5c>
20000ba8:	2301      	movs	r3, #1
20000baa:	7023      	strb	r3, [r4, #0]
20000bac:	b00f      	add	sp, #60	; 0x3c
20000bae:	bdf0      	pop	{r4, r5, r6, r7, pc}
20000bb0:	f241 3288 	movw	r2, #5000	; 0x1388
20000bb4:	4629      	mov	r1, r5
20000bb6:	4804      	ldr	r0, [pc, #16]	; (20000bc8 <W25Q128JV_ReadQuad+0x74>)
20000bb8:	f001 fdca 	bl	20002750 <HAL_QSPI_Receive>
20000bbc:	e7f4      	b.n	20000ba8 <W25Q128JV_ReadQuad+0x54>
20000bbe:	2001      	movs	r0, #1
20000bc0:	e7f4      	b.n	20000bac <W25Q128JV_ReadQuad+0x58>
20000bc2:	bf00      	nop
20000bc4:	20003946 	.word	0x20003946
20000bc8:	20003948 	.word	0x20003948

20000bcc <W25Q128JV_Read1Line>:
20000bcc:	b5f0      	push	{r4, r5, r6, r7, lr}
20000bce:	4c1a      	ldr	r4, [pc, #104]	; (20000c38 <W25Q128JV_Read1Line+0x6c>)
20000bd0:	b08f      	sub	sp, #60	; 0x3c
20000bd2:	4607      	mov	r7, r0
20000bd4:	460d      	mov	r5, r1
20000bd6:	4616      	mov	r6, r2
20000bd8:	2100      	movs	r1, #0
20000bda:	2238      	movs	r2, #56	; 0x38
20000bdc:	4668      	mov	r0, sp
20000bde:	f002 fa53 	bl	20003088 <memset>
20000be2:	7820      	ldrb	r0, [r4, #0]
20000be4:	2802      	cmp	r0, #2
20000be6:	d01b      	beq.n	20000c20 <W25Q128JV_Read1Line+0x54>
20000be8:	b318      	cbz	r0, 20000c32 <W25Q128JV_Read1Line+0x66>
20000bea:	2302      	movs	r3, #2
20000bec:	7023      	strb	r3, [r4, #0]
20000bee:	f44f 7380 	mov.w	r3, #256	; 0x100
20000bf2:	9306      	str	r3, [sp, #24]
20000bf4:	f44f 5300 	mov.w	r3, #8192	; 0x2000
20000bf8:	9303      	str	r3, [sp, #12]
20000bfa:	2303      	movs	r3, #3
20000bfc:	e9cd 3700 	strd	r3, r7, [sp]
20000c00:	f44f 6380 	mov.w	r3, #1024	; 0x400
20000c04:	9307      	str	r3, [sp, #28]
20000c06:	f241 3288 	movw	r2, #5000	; 0x1388
20000c0a:	f04f 7380 	mov.w	r3, #16777216	; 0x1000000
20000c0e:	4669      	mov	r1, sp
20000c10:	480a      	ldr	r0, [pc, #40]	; (20000c3c <W25Q128JV_Read1Line+0x70>)
20000c12:	e9cd 3609 	strd	r3, r6, [sp, #36]	; 0x24
20000c16:	f001 f9d1 	bl	20001fbc <HAL_QSPI_Command>
20000c1a:	b118      	cbz	r0, 20000c24 <W25Q128JV_Read1Line+0x58>
20000c1c:	2301      	movs	r3, #1
20000c1e:	7023      	strb	r3, [r4, #0]
20000c20:	b00f      	add	sp, #60	; 0x3c
20000c22:	bdf0      	pop	{r4, r5, r6, r7, pc}
20000c24:	f241 3288 	movw	r2, #5000	; 0x1388
20000c28:	4629      	mov	r1, r5
20000c2a:	4804      	ldr	r0, [pc, #16]	; (20000c3c <W25Q128JV_Read1Line+0x70>)
20000c2c:	f001 fd90 	bl	20002750 <HAL_QSPI_Receive>
20000c30:	e7f4      	b.n	20000c1c <W25Q128JV_Read1Line+0x50>
20000c32:	2001      	movs	r0, #1
20000c34:	e7f4      	b.n	20000c20 <W25Q128JV_Read1Line+0x54>
20000c36:	bf00      	nop
20000c38:	20003946 	.word	0x20003946
20000c3c:	20003948 	.word	0x20003948

20000c40 <W25Q128JV_ReadFast1Line>:
20000c40:	b5f0      	push	{r4, r5, r6, r7, lr}
20000c42:	4c1c      	ldr	r4, [pc, #112]	; (20000cb4 <W25Q128JV_ReadFast1Line+0x74>)
20000c44:	b08f      	sub	sp, #60	; 0x3c
20000c46:	4607      	mov	r7, r0
20000c48:	460e      	mov	r6, r1
20000c4a:	4615      	mov	r5, r2
20000c4c:	2100      	movs	r1, #0
20000c4e:	2238      	movs	r2, #56	; 0x38
20000c50:	4668      	mov	r0, sp
20000c52:	f002 fa19 	bl	20003088 <memset>
20000c56:	7820      	ldrb	r0, [r4, #0]
20000c58:	2802      	cmp	r0, #2
20000c5a:	d020      	beq.n	20000c9e <W25Q128JV_ReadFast1Line+0x5e>
20000c5c:	b340      	cbz	r0, 20000cb0 <W25Q128JV_ReadFast1Line+0x70>
20000c5e:	f5b5 3f80 	cmp.w	r5, #65536	; 0x10000
20000c62:	da25      	bge.n	20000cb0 <W25Q128JV_ReadFast1Line+0x70>
20000c64:	2302      	movs	r3, #2
20000c66:	7023      	strb	r3, [r4, #0]
20000c68:	f44f 7380 	mov.w	r3, #256	; 0x100
20000c6c:	9306      	str	r3, [sp, #24]
20000c6e:	f44f 5300 	mov.w	r3, #8192	; 0x2000
20000c72:	9303      	str	r3, [sp, #12]
20000c74:	230b      	movs	r3, #11
20000c76:	9300      	str	r3, [sp, #0]
20000c78:	2308      	movs	r3, #8
20000c7a:	9305      	str	r3, [sp, #20]
20000c7c:	f44f 6380 	mov.w	r3, #1024	; 0x400
20000c80:	9307      	str	r3, [sp, #28]
20000c82:	f241 3288 	movw	r2, #5000	; 0x1388
20000c86:	f04f 7380 	mov.w	r3, #16777216	; 0x1000000
20000c8a:	4669      	mov	r1, sp
20000c8c:	480a      	ldr	r0, [pc, #40]	; (20000cb8 <W25Q128JV_ReadFast1Line+0x78>)
20000c8e:	9701      	str	r7, [sp, #4]
20000c90:	e9cd 3509 	strd	r3, r5, [sp, #36]	; 0x24
20000c94:	f001 f992 	bl	20001fbc <HAL_QSPI_Command>
20000c98:	b118      	cbz	r0, 20000ca2 <W25Q128JV_ReadFast1Line+0x62>
20000c9a:	2301      	movs	r3, #1
20000c9c:	7023      	strb	r3, [r4, #0]
20000c9e:	b00f      	add	sp, #60	; 0x3c
20000ca0:	bdf0      	pop	{r4, r5, r6, r7, pc}
20000ca2:	f241 3288 	movw	r2, #5000	; 0x1388
20000ca6:	4631      	mov	r1, r6
20000ca8:	4803      	ldr	r0, [pc, #12]	; (20000cb8 <W25Q128JV_ReadFast1Line+0x78>)
20000caa:	f001 fd51 	bl	20002750 <HAL_QSPI_Receive>
20000cae:	e7f4      	b.n	20000c9a <W25Q128JV_ReadFast1Line+0x5a>
20000cb0:	2001      	movs	r0, #1
20000cb2:	e7f4      	b.n	20000c9e <W25Q128JV_ReadFast1Line+0x5e>
20000cb4:	20003946 	.word	0x20003946
20000cb8:	20003948 	.word	0x20003948

20000cbc <W25Q128JV_ReadDual>:
20000cbc:	b5f0      	push	{r4, r5, r6, r7, lr}
20000cbe:	4c1b      	ldr	r4, [pc, #108]	; (20000d2c <W25Q128JV_ReadDual+0x70>)
20000cc0:	b08f      	sub	sp, #60	; 0x3c
20000cc2:	4607      	mov	r7, r0
20000cc4:	460d      	mov	r5, r1
20000cc6:	4616      	mov	r6, r2
20000cc8:	2100      	movs	r1, #0
20000cca:	2238      	movs	r2, #56	; 0x38
20000ccc:	4668      	mov	r0, sp
20000cce:	f002 f9db 	bl	20003088 <memset>
20000cd2:	7820      	ldrb	r0, [r4, #0]
20000cd4:	2802      	cmp	r0, #2
20000cd6:	d01d      	beq.n	20000d14 <W25Q128JV_ReadDual+0x58>
20000cd8:	b328      	cbz	r0, 20000d26 <W25Q128JV_ReadDual+0x6a>
20000cda:	2302      	movs	r3, #2
20000cdc:	7023      	strb	r3, [r4, #0]
20000cde:	f44f 7380 	mov.w	r3, #256	; 0x100
20000ce2:	9306      	str	r3, [sp, #24]
20000ce4:	f44f 5300 	mov.w	r3, #8192	; 0x2000
20000ce8:	9303      	str	r3, [sp, #12]
20000cea:	233b      	movs	r3, #59	; 0x3b
20000cec:	9300      	str	r3, [sp, #0]
20000cee:	2308      	movs	r3, #8
20000cf0:	9305      	str	r3, [sp, #20]
20000cf2:	f44f 6380 	mov.w	r3, #1024	; 0x400
20000cf6:	9307      	str	r3, [sp, #28]
20000cf8:	f241 3288 	movw	r2, #5000	; 0x1388
20000cfc:	f04f 7300 	mov.w	r3, #33554432	; 0x2000000
20000d00:	4669      	mov	r1, sp
20000d02:	480b      	ldr	r0, [pc, #44]	; (20000d30 <W25Q128JV_ReadDual+0x74>)
20000d04:	9701      	str	r7, [sp, #4]
20000d06:	e9cd 3609 	strd	r3, r6, [sp, #36]	; 0x24
20000d0a:	f001 f957 	bl	20001fbc <HAL_QSPI_Command>
20000d0e:	b118      	cbz	r0, 20000d18 <W25Q128JV_ReadDual+0x5c>
20000d10:	2301      	movs	r3, #1
20000d12:	7023      	strb	r3, [r4, #0]
20000d14:	b00f      	add	sp, #60	; 0x3c
20000d16:	bdf0      	pop	{r4, r5, r6, r7, pc}
20000d18:	f241 3288 	movw	r2, #5000	; 0x1388
20000d1c:	4629      	mov	r1, r5
20000d1e:	4804      	ldr	r0, [pc, #16]	; (20000d30 <W25Q128JV_ReadDual+0x74>)
20000d20:	f001 fd16 	bl	20002750 <HAL_QSPI_Receive>
20000d24:	e7f4      	b.n	20000d10 <W25Q128JV_ReadDual+0x54>
20000d26:	2001      	movs	r0, #1
20000d28:	e7f4      	b.n	20000d14 <W25Q128JV_ReadDual+0x58>
20000d2a:	bf00      	nop
20000d2c:	20003946 	.word	0x20003946
20000d30:	20003948 	.word	0x20003948

20000d34 <W25Q128JV_MemoryMapped>:
20000d34:	b500      	push	{lr}
20000d36:	b091      	sub	sp, #68	; 0x44
20000d38:	2234      	movs	r2, #52	; 0x34
20000d3a:	2100      	movs	r1, #0
20000d3c:	a803      	add	r0, sp, #12
20000d3e:	f002 f9a3 	bl	20003088 <memset>
20000d42:	2300      	movs	r3, #0
20000d44:	e9cd 3300 	strd	r3, r3, [sp]
20000d48:	f44f 7380 	mov.w	r3, #256	; 0x100
20000d4c:	9308      	str	r3, [sp, #32]
20000d4e:	f44f 5300 	mov.w	r3, #8192	; 0x2000
20000d52:	9305      	str	r3, [sp, #20]
20000d54:	233b      	movs	r3, #59	; 0x3b
20000d56:	9302      	str	r3, [sp, #8]
20000d58:	2308      	movs	r3, #8
20000d5a:	9307      	str	r3, [sp, #28]
20000d5c:	f44f 6380 	mov.w	r3, #1024	; 0x400
20000d60:	9309      	str	r3, [sp, #36]	; 0x24
20000d62:	f04f 7200 	mov.w	r2, #33554432	; 0x2000000
20000d66:	f04f 7380 	mov.w	r3, #16777216	; 0x1000000
20000d6a:	e9cd 230b 	strd	r2, r3, [sp, #44]	; 0x2c
20000d6e:	a902      	add	r1, sp, #8
20000d70:	466a      	mov	r2, sp
20000d72:	4803      	ldr	r0, [pc, #12]	; (20000d80 <W25Q128JV_MemoryMapped+0x4c>)
20000d74:	f001 fbde 	bl	20002534 <HAL_QSPI_MemoryMapped>
20000d78:	b011      	add	sp, #68	; 0x44
20000d7a:	f85d fb04 	ldr.w	pc, [sp], #4
20000d7e:	bf00      	nop
20000d80:	20003948 	.word	0x20003948
20000d84:	4770      	bx	lr
	...

20000d88 <HAL_Init>:
20000d88:	b508      	push	{r3, lr}
20000d8a:	4b08      	ldr	r3, [pc, #32]	; (20000dac <HAL_Init+0x24>)
20000d8c:	681a      	ldr	r2, [r3, #0]
20000d8e:	f442 7200 	orr.w	r2, r2, #512	; 0x200
20000d92:	601a      	str	r2, [r3, #0]
20000d94:	681a      	ldr	r2, [r3, #0]
20000d96:	f442 6280 	orr.w	r2, r2, #1024	; 0x400
20000d9a:	601a      	str	r2, [r3, #0]
20000d9c:	681a      	ldr	r2, [r3, #0]
20000d9e:	f442 7280 	orr.w	r2, r2, #256	; 0x100
20000da2:	601a      	str	r2, [r3, #0]
20000da4:	f7ff fc3a 	bl	2000061c <HAL_MspInit>
20000da8:	2000      	movs	r0, #0
20000daa:	bd08      	pop	{r3, pc}
20000dac:	40023c00 	.word	0x40023c00

20000db0 <HAL_MspDeInit>:
20000db0:	4770      	bx	lr
	...

20000db4 <HAL_DeInit>:
20000db4:	b510      	push	{r4, lr}
20000db6:	4b09      	ldr	r3, [pc, #36]	; (20000ddc <HAL_DeInit+0x28>)
20000db8:	f04f 32ff 	mov.w	r2, #4294967295
20000dbc:	2400      	movs	r4, #0
20000dbe:	621a      	str	r2, [r3, #32]
20000dc0:	621c      	str	r4, [r3, #32]
20000dc2:	625a      	str	r2, [r3, #36]	; 0x24
20000dc4:	625c      	str	r4, [r3, #36]	; 0x24
20000dc6:	611a      	str	r2, [r3, #16]
20000dc8:	611c      	str	r4, [r3, #16]
20000dca:	615a      	str	r2, [r3, #20]
20000dcc:	615c      	str	r4, [r3, #20]
20000dce:	619a      	str	r2, [r3, #24]
20000dd0:	619c      	str	r4, [r3, #24]
20000dd2:	f7ff ffed 	bl	20000db0 <HAL_MspDeInit>
20000dd6:	4620      	mov	r0, r4
20000dd8:	bd10      	pop	{r4, pc}
20000dda:	bf00      	nop
20000ddc:	40023800 	.word	0x40023800

20000de0 <HAL_InitTick>:
20000de0:	2000      	movs	r0, #0
20000de2:	4770      	bx	lr

20000de4 <HAL_IncTick>:
20000de4:	4a03      	ldr	r2, [pc, #12]	; (20000df4 <HAL_IncTick+0x10>)
20000de6:	4b04      	ldr	r3, [pc, #16]	; (20000df8 <HAL_IncTick+0x14>)
20000de8:	6811      	ldr	r1, [r2, #0]
20000dea:	781b      	ldrb	r3, [r3, #0]
20000dec:	440b      	add	r3, r1
20000dee:	6013      	str	r3, [r2, #0]
20000df0:	4770      	bx	lr
20000df2:	bf00      	nop
20000df4:	20003994 	.word	0x20003994
20000df8:	2000393c 	.word	0x2000393c

20000dfc <HAL_GetTick>:
20000dfc:	4b01      	ldr	r3, [pc, #4]	; (20000e04 <HAL_GetTick+0x8>)
20000dfe:	6818      	ldr	r0, [r3, #0]
20000e00:	4770      	bx	lr
20000e02:	bf00      	nop
20000e04:	20003994 	.word	0x20003994

20000e08 <HAL_GetTickPrio>:
20000e08:	4b01      	ldr	r3, [pc, #4]	; (20000e10 <HAL_GetTickPrio+0x8>)
20000e0a:	6818      	ldr	r0, [r3, #0]
20000e0c:	4770      	bx	lr
20000e0e:	bf00      	nop
20000e10:	20003940 	.word	0x20003940

20000e14 <HAL_SetTickFreq>:
20000e14:	b538      	push	{r3, r4, r5, lr}
20000e16:	4c07      	ldr	r4, [pc, #28]	; (20000e34 <HAL_SetTickFreq+0x20>)
20000e18:	7825      	ldrb	r5, [r4, #0]
20000e1a:	4285      	cmp	r5, r0
20000e1c:	d007      	beq.n	20000e2e <HAL_SetTickFreq+0x1a>
20000e1e:	4b06      	ldr	r3, [pc, #24]	; (20000e38 <HAL_SetTickFreq+0x24>)
20000e20:	7020      	strb	r0, [r4, #0]
20000e22:	6818      	ldr	r0, [r3, #0]
20000e24:	f7ff ffdc 	bl	20000de0 <HAL_InitTick>
20000e28:	b100      	cbz	r0, 20000e2c <HAL_SetTickFreq+0x18>
20000e2a:	7025      	strb	r5, [r4, #0]
20000e2c:	bd38      	pop	{r3, r4, r5, pc}
20000e2e:	2000      	movs	r0, #0
20000e30:	e7fc      	b.n	20000e2c <HAL_SetTickFreq+0x18>
20000e32:	bf00      	nop
20000e34:	2000393c 	.word	0x2000393c
20000e38:	20003940 	.word	0x20003940

20000e3c <HAL_GetTickFreq>:
20000e3c:	4b01      	ldr	r3, [pc, #4]	; (20000e44 <HAL_GetTickFreq+0x8>)
20000e3e:	7818      	ldrb	r0, [r3, #0]
20000e40:	4770      	bx	lr
20000e42:	bf00      	nop
20000e44:	2000393c 	.word	0x2000393c

20000e48 <HAL_Delay>:
20000e48:	b538      	push	{r3, r4, r5, lr}
20000e4a:	4604      	mov	r4, r0
20000e4c:	f7ff ffd6 	bl	20000dfc <HAL_GetTick>
20000e50:	1c63      	adds	r3, r4, #1
20000e52:	bf1c      	itt	ne
20000e54:	4b05      	ldrne	r3, [pc, #20]	; (20000e6c <HAL_Delay+0x24>)
20000e56:	781b      	ldrbne	r3, [r3, #0]
20000e58:	4605      	mov	r5, r0
20000e5a:	bf18      	it	ne
20000e5c:	18e4      	addne	r4, r4, r3
20000e5e:	f7ff ffcd 	bl	20000dfc <HAL_GetTick>
20000e62:	1b40      	subs	r0, r0, r5
20000e64:	42a0      	cmp	r0, r4
20000e66:	d3fa      	bcc.n	20000e5e <HAL_Delay+0x16>
20000e68:	bd38      	pop	{r3, r4, r5, pc}
20000e6a:	bf00      	nop
20000e6c:	2000393c 	.word	0x2000393c

20000e70 <HAL_SuspendTick>:
20000e70:	4a02      	ldr	r2, [pc, #8]	; (20000e7c <HAL_SuspendTick+0xc>)
20000e72:	6813      	ldr	r3, [r2, #0]
20000e74:	f023 0302 	bic.w	r3, r3, #2
20000e78:	6013      	str	r3, [r2, #0]
20000e7a:	4770      	bx	lr
20000e7c:	e000e010 	.word	0xe000e010

20000e80 <HAL_ResumeTick>:
20000e80:	4770      	bx	lr
	...

20000e84 <HAL_GetHalVersion>:
20000e84:	4800      	ldr	r0, [pc, #0]	; (20000e88 <HAL_GetHalVersion+0x4>)
20000e86:	4770      	bx	lr
20000e88:	01070700 	.word	0x01070700

20000e8c <HAL_GetREVID>:
20000e8c:	4b01      	ldr	r3, [pc, #4]	; (20000e94 <HAL_GetREVID+0x8>)
20000e8e:	6818      	ldr	r0, [r3, #0]
20000e90:	0c00      	lsrs	r0, r0, #16
20000e92:	4770      	bx	lr
20000e94:	e0042000 	.word	0xe0042000

20000e98 <HAL_GetDEVID>:
20000e98:	4b02      	ldr	r3, [pc, #8]	; (20000ea4 <HAL_GetDEVID+0xc>)
20000e9a:	6818      	ldr	r0, [r3, #0]
20000e9c:	f3c0 000b 	ubfx	r0, r0, #0, #12
20000ea0:	4770      	bx	lr
20000ea2:	bf00      	nop
20000ea4:	e0042000 	.word	0xe0042000

20000ea8 <HAL_DBGMCU_EnableDBGSleepMode>:
20000ea8:	4a02      	ldr	r2, [pc, #8]	; (20000eb4 <HAL_DBGMCU_EnableDBGSleepMode+0xc>)
20000eaa:	6853      	ldr	r3, [r2, #4]
20000eac:	f043 0301 	orr.w	r3, r3, #1
20000eb0:	6053      	str	r3, [r2, #4]
20000eb2:	4770      	bx	lr
20000eb4:	e0042000 	.word	0xe0042000

20000eb8 <HAL_DBGMCU_DisableDBGSleepMode>:
20000eb8:	4a02      	ldr	r2, [pc, #8]	; (20000ec4 <HAL_DBGMCU_DisableDBGSleepMode+0xc>)
20000eba:	6853      	ldr	r3, [r2, #4]
20000ebc:	f023 0301 	bic.w	r3, r3, #1
20000ec0:	6053      	str	r3, [r2, #4]
20000ec2:	4770      	bx	lr
20000ec4:	e0042000 	.word	0xe0042000

20000ec8 <HAL_DBGMCU_EnableDBGStopMode>:
20000ec8:	4a02      	ldr	r2, [pc, #8]	; (20000ed4 <HAL_DBGMCU_EnableDBGStopMode+0xc>)
20000eca:	6853      	ldr	r3, [r2, #4]
20000ecc:	f043 0302 	orr.w	r3, r3, #2
20000ed0:	6053      	str	r3, [r2, #4]
20000ed2:	4770      	bx	lr
20000ed4:	e0042000 	.word	0xe0042000

20000ed8 <HAL_DBGMCU_DisableDBGStopMode>:
20000ed8:	4a02      	ldr	r2, [pc, #8]	; (20000ee4 <HAL_DBGMCU_DisableDBGStopMode+0xc>)
20000eda:	6853      	ldr	r3, [r2, #4]
20000edc:	f023 0302 	bic.w	r3, r3, #2
20000ee0:	6053      	str	r3, [r2, #4]
20000ee2:	4770      	bx	lr
20000ee4:	e0042000 	.word	0xe0042000

20000ee8 <HAL_DBGMCU_EnableDBGStandbyMode>:
20000ee8:	4a02      	ldr	r2, [pc, #8]	; (20000ef4 <HAL_DBGMCU_EnableDBGStandbyMode+0xc>)
20000eea:	6853      	ldr	r3, [r2, #4]
20000eec:	f043 0304 	orr.w	r3, r3, #4
20000ef0:	6053      	str	r3, [r2, #4]
20000ef2:	4770      	bx	lr
20000ef4:	e0042000 	.word	0xe0042000

20000ef8 <HAL_DBGMCU_DisableDBGStandbyMode>:
20000ef8:	4a02      	ldr	r2, [pc, #8]	; (20000f04 <HAL_DBGMCU_DisableDBGStandbyMode+0xc>)
20000efa:	6853      	ldr	r3, [r2, #4]
20000efc:	f023 0304 	bic.w	r3, r3, #4
20000f00:	6053      	str	r3, [r2, #4]
20000f02:	4770      	bx	lr
20000f04:	e0042000 	.word	0xe0042000

20000f08 <HAL_EnableCompensationCell>:
20000f08:	4b01      	ldr	r3, [pc, #4]	; (20000f10 <HAL_EnableCompensationCell+0x8>)
20000f0a:	2201      	movs	r2, #1
20000f0c:	601a      	str	r2, [r3, #0]
20000f0e:	4770      	bx	lr
20000f10:	42270400 	.word	0x42270400

20000f14 <HAL_DisableCompensationCell>:
20000f14:	4b01      	ldr	r3, [pc, #4]	; (20000f1c <HAL_DisableCompensationCell+0x8>)
20000f16:	2200      	movs	r2, #0
20000f18:	601a      	str	r2, [r3, #0]
20000f1a:	4770      	bx	lr
20000f1c:	42270400 	.word	0x42270400

20000f20 <HAL_GetUIDw0>:
20000f20:	4b01      	ldr	r3, [pc, #4]	; (20000f28 <HAL_GetUIDw0+0x8>)
20000f22:	6818      	ldr	r0, [r3, #0]
20000f24:	4770      	bx	lr
20000f26:	bf00      	nop
20000f28:	1fff7a10 	.word	0x1fff7a10

20000f2c <HAL_GetUIDw1>:
20000f2c:	4b01      	ldr	r3, [pc, #4]	; (20000f34 <HAL_GetUIDw1+0x8>)
20000f2e:	6818      	ldr	r0, [r3, #0]
20000f30:	4770      	bx	lr
20000f32:	bf00      	nop
20000f34:	1fff7a14 	.word	0x1fff7a14

20000f38 <HAL_GetUIDw2>:
20000f38:	4b01      	ldr	r3, [pc, #4]	; (20000f40 <HAL_GetUIDw2+0x8>)
20000f3a:	6818      	ldr	r0, [r3, #0]
20000f3c:	4770      	bx	lr
20000f3e:	bf00      	nop
20000f40:	1fff7a18 	.word	0x1fff7a18

20000f44 <HAL_NVIC_SetPriorityGrouping>:
20000f44:	4a07      	ldr	r2, [pc, #28]	; (20000f64 <HAL_NVIC_SetPriorityGrouping+0x20>)
20000f46:	68d3      	ldr	r3, [r2, #12]
20000f48:	f423 63e0 	bic.w	r3, r3, #1792	; 0x700
20000f4c:	041b      	lsls	r3, r3, #16
20000f4e:	0c1b      	lsrs	r3, r3, #16
20000f50:	f043 63bf 	orr.w	r3, r3, #100139008	; 0x5f80000
20000f54:	0200      	lsls	r0, r0, #8
20000f56:	f443 3300 	orr.w	r3, r3, #131072	; 0x20000
20000f5a:	f400 60e0 	and.w	r0, r0, #1792	; 0x700
20000f5e:	4303      	orrs	r3, r0
20000f60:	60d3      	str	r3, [r2, #12]
20000f62:	4770      	bx	lr
20000f64:	e000ed00 	.word	0xe000ed00

20000f68 <HAL_NVIC_SetPriority>:
20000f68:	4b17      	ldr	r3, [pc, #92]	; (20000fc8 <HAL_NVIC_SetPriority+0x60>)
20000f6a:	b570      	push	{r4, r5, r6, lr}
20000f6c:	68dc      	ldr	r4, [r3, #12]
20000f6e:	f3c4 2402 	ubfx	r4, r4, #8, #3
20000f72:	f1c4 0507 	rsb	r5, r4, #7
20000f76:	2d04      	cmp	r5, #4
20000f78:	f104 0304 	add.w	r3, r4, #4
20000f7c:	bf28      	it	cs
20000f7e:	2504      	movcs	r5, #4
20000f80:	f04f 36ff 	mov.w	r6, #4294967295
20000f84:	2b06      	cmp	r3, #6
20000f86:	fa06 f305 	lsl.w	r3, r6, r5
20000f8a:	bf8c      	ite	hi
20000f8c:	3c03      	subhi	r4, #3
20000f8e:	2400      	movls	r4, #0
20000f90:	ea21 0303 	bic.w	r3, r1, r3
20000f94:	40a3      	lsls	r3, r4
20000f96:	fa06 f404 	lsl.w	r4, r6, r4
20000f9a:	ea22 0404 	bic.w	r4, r2, r4
20000f9e:	2800      	cmp	r0, #0
20000fa0:	ea43 0304 	orr.w	r3, r3, r4
20000fa4:	bfa8      	it	ge
20000fa6:	f100 4060 	addge.w	r0, r0, #3758096384	; 0xe0000000
20000faa:	ea4f 1303 	mov.w	r3, r3, lsl #4
20000fae:	bfbc      	itt	lt
20000fb0:	f000 000f 	andlt.w	r0, r0, #15
20000fb4:	4a05      	ldrlt	r2, [pc, #20]	; (20000fcc <HAL_NVIC_SetPriority+0x64>)
20000fb6:	b2db      	uxtb	r3, r3
20000fb8:	bfaa      	itet	ge
20000fba:	f500 4061 	addge.w	r0, r0, #57600	; 0xe100
20000fbe:	5413      	strblt	r3, [r2, r0]
20000fc0:	f880 3300 	strbge.w	r3, [r0, #768]	; 0x300
20000fc4:	bd70      	pop	{r4, r5, r6, pc}
20000fc6:	bf00      	nop
20000fc8:	e000ed00 	.word	0xe000ed00
20000fcc:	e000ed14 	.word	0xe000ed14

20000fd0 <HAL_NVIC_EnableIRQ>:
20000fd0:	2800      	cmp	r0, #0
20000fd2:	db08      	blt.n	20000fe6 <HAL_NVIC_EnableIRQ+0x16>
20000fd4:	0942      	lsrs	r2, r0, #5
20000fd6:	2301      	movs	r3, #1
20000fd8:	f000 001f 	and.w	r0, r0, #31
20000fdc:	fa03 f000 	lsl.w	r0, r3, r0
20000fe0:	4b01      	ldr	r3, [pc, #4]	; (20000fe8 <HAL_NVIC_EnableIRQ+0x18>)
20000fe2:	f843 0022 	str.w	r0, [r3, r2, lsl #2]
20000fe6:	4770      	bx	lr
20000fe8:	e000e100 	.word	0xe000e100

20000fec <HAL_NVIC_DisableIRQ>:
20000fec:	2800      	cmp	r0, #0
20000fee:	db0d      	blt.n	2000100c <HAL_NVIC_DisableIRQ+0x20>
20000ff0:	0943      	lsrs	r3, r0, #5
20000ff2:	2201      	movs	r2, #1
20000ff4:	f000 001f 	and.w	r0, r0, #31
20000ff8:	fa02 f000 	lsl.w	r0, r2, r0
20000ffc:	3320      	adds	r3, #32
20000ffe:	4a04      	ldr	r2, [pc, #16]	; (20001010 <HAL_NVIC_DisableIRQ+0x24>)
20001000:	f842 0023 	str.w	r0, [r2, r3, lsl #2]
20001004:	f3bf 8f4f 	dsb	sy
20001008:	f3bf 8f6f 	isb	sy
2000100c:	4770      	bx	lr
2000100e:	bf00      	nop
20001010:	e000e100 	.word	0xe000e100

20001014 <HAL_NVIC_SystemReset>:
20001014:	f3bf 8f4f 	dsb	sy
20001018:	4905      	ldr	r1, [pc, #20]	; (20001030 <HAL_NVIC_SystemReset+0x1c>)
2000101a:	4b06      	ldr	r3, [pc, #24]	; (20001034 <HAL_NVIC_SystemReset+0x20>)
2000101c:	68ca      	ldr	r2, [r1, #12]
2000101e:	f402 62e0 	and.w	r2, r2, #1792	; 0x700
20001022:	4313      	orrs	r3, r2
20001024:	60cb      	str	r3, [r1, #12]
20001026:	f3bf 8f4f 	dsb	sy
2000102a:	bf00      	nop
2000102c:	e7fd      	b.n	2000102a <HAL_NVIC_SystemReset+0x16>
2000102e:	bf00      	nop
20001030:	e000ed00 	.word	0xe000ed00
20001034:	05fa0004 	.word	0x05fa0004

20001038 <HAL_SYSTICK_Config>:
20001038:	3801      	subs	r0, #1
2000103a:	f1b0 7f80 	cmp.w	r0, #16777216	; 0x1000000
2000103e:	d20a      	bcs.n	20001056 <HAL_SYSTICK_Config+0x1e>
20001040:	4b06      	ldr	r3, [pc, #24]	; (2000105c <HAL_SYSTICK_Config+0x24>)
20001042:	4a07      	ldr	r2, [pc, #28]	; (20001060 <HAL_SYSTICK_Config+0x28>)
20001044:	6058      	str	r0, [r3, #4]
20001046:	21f0      	movs	r1, #240	; 0xf0
20001048:	f882 1023 	strb.w	r1, [r2, #35]	; 0x23
2000104c:	2000      	movs	r0, #0
2000104e:	2207      	movs	r2, #7
20001050:	6098      	str	r0, [r3, #8]
20001052:	601a      	str	r2, [r3, #0]
20001054:	4770      	bx	lr
20001056:	2001      	movs	r0, #1
20001058:	4770      	bx	lr
2000105a:	bf00      	nop
2000105c:	e000e010 	.word	0xe000e010
20001060:	e000ed00 	.word	0xe000ed00

20001064 <HAL_MPU_Disable>:
20001064:	f3bf 8f5f 	dmb	sy
20001068:	4a04      	ldr	r2, [pc, #16]	; (2000107c <HAL_MPU_Disable+0x18>)
2000106a:	6a53      	ldr	r3, [r2, #36]	; 0x24
2000106c:	f423 3380 	bic.w	r3, r3, #65536	; 0x10000
20001070:	6253      	str	r3, [r2, #36]	; 0x24
20001072:	4b03      	ldr	r3, [pc, #12]	; (20001080 <HAL_MPU_Disable+0x1c>)
20001074:	2200      	movs	r2, #0
20001076:	605a      	str	r2, [r3, #4]
20001078:	4770      	bx	lr
2000107a:	bf00      	nop
2000107c:	e000ed00 	.word	0xe000ed00
20001080:	e000ed90 	.word	0xe000ed90

20001084 <HAL_MPU_Enable>:
20001084:	4b06      	ldr	r3, [pc, #24]	; (200010a0 <HAL_MPU_Enable+0x1c>)
20001086:	4a07      	ldr	r2, [pc, #28]	; (200010a4 <HAL_MPU_Enable+0x20>)
20001088:	f040 0001 	orr.w	r0, r0, #1
2000108c:	6058      	str	r0, [r3, #4]
2000108e:	6a53      	ldr	r3, [r2, #36]	; 0x24
20001090:	f443 3380 	orr.w	r3, r3, #65536	; 0x10000
20001094:	6253      	str	r3, [r2, #36]	; 0x24
20001096:	f3bf 8f4f 	dsb	sy
2000109a:	f3bf 8f6f 	isb	sy
2000109e:	4770      	bx	lr
200010a0:	e000ed90 	.word	0xe000ed90
200010a4:	e000ed00 	.word	0xe000ed00

200010a8 <HAL_MPU_ConfigRegion>:
200010a8:	4a12      	ldr	r2, [pc, #72]	; (200010f4 <HAL_MPU_ConfigRegion+0x4c>)
200010aa:	7843      	ldrb	r3, [r0, #1]
200010ac:	b510      	push	{r4, lr}
200010ae:	6093      	str	r3, [r2, #8]
200010b0:	7801      	ldrb	r1, [r0, #0]
200010b2:	b1d9      	cbz	r1, 200010ec <HAL_MPU_ConfigRegion+0x44>
200010b4:	6843      	ldr	r3, [r0, #4]
200010b6:	60d3      	str	r3, [r2, #12]
200010b8:	7ac3      	ldrb	r3, [r0, #11]
200010ba:	7b04      	ldrb	r4, [r0, #12]
200010bc:	061b      	lsls	r3, r3, #24
200010be:	ea43 7304 	orr.w	r3, r3, r4, lsl #28
200010c2:	430b      	orrs	r3, r1
200010c4:	7a81      	ldrb	r1, [r0, #10]
200010c6:	ea43 43c1 	orr.w	r3, r3, r1, lsl #19
200010ca:	7b41      	ldrb	r1, [r0, #13]
200010cc:	ea43 4381 	orr.w	r3, r3, r1, lsl #18
200010d0:	7b81      	ldrb	r1, [r0, #14]
200010d2:	ea43 4341 	orr.w	r3, r3, r1, lsl #17
200010d6:	7bc1      	ldrb	r1, [r0, #15]
200010d8:	ea43 4301 	orr.w	r3, r3, r1, lsl #16
200010dc:	7a41      	ldrb	r1, [r0, #9]
200010de:	ea43 2301 	orr.w	r3, r3, r1, lsl #8
200010e2:	7a01      	ldrb	r1, [r0, #8]
200010e4:	ea43 0341 	orr.w	r3, r3, r1, lsl #1
200010e8:	6113      	str	r3, [r2, #16]
200010ea:	bd10      	pop	{r4, pc}
200010ec:	60d1      	str	r1, [r2, #12]
200010ee:	6111      	str	r1, [r2, #16]
200010f0:	e7fb      	b.n	200010ea <HAL_MPU_ConfigRegion+0x42>
200010f2:	bf00      	nop
200010f4:	e000ed90 	.word	0xe000ed90

200010f8 <HAL_NVIC_GetPriorityGrouping>:
200010f8:	4b02      	ldr	r3, [pc, #8]	; (20001104 <HAL_NVIC_GetPriorityGrouping+0xc>)
200010fa:	68d8      	ldr	r0, [r3, #12]
200010fc:	f3c0 2002 	ubfx	r0, r0, #8, #3
20001100:	4770      	bx	lr
20001102:	bf00      	nop
20001104:	e000ed00 	.word	0xe000ed00

20001108 <HAL_NVIC_GetPriority>:
20001108:	b570      	push	{r4, r5, r6, lr}
2000110a:	2800      	cmp	r0, #0
2000110c:	bfae      	itee	ge
2000110e:	f100 4060 	addge.w	r0, r0, #3758096384	; 0xe0000000
20001112:	f000 000f 	andlt.w	r0, r0, #15
20001116:	4c12      	ldrlt	r4, [pc, #72]	; (20001160 <HAL_NVIC_GetPriority+0x58>)
20001118:	f001 0107 	and.w	r1, r1, #7
2000111c:	bfaa      	itet	ge
2000111e:	f500 4061 	addge.w	r0, r0, #57600	; 0xe100
20001122:	5c20      	ldrblt	r0, [r4, r0]
20001124:	f890 0300 	ldrbge.w	r0, [r0, #768]	; 0x300
20001128:	f1c1 0407 	rsb	r4, r1, #7
2000112c:	1d0d      	adds	r5, r1, #4
2000112e:	2c04      	cmp	r4, #4
20001130:	bf28      	it	cs
20001132:	2404      	movcs	r4, #4
20001134:	2d06      	cmp	r5, #6
20001136:	ea4f 1010 	mov.w	r0, r0, lsr #4
2000113a:	bf8c      	ite	hi
2000113c:	3903      	subhi	r1, #3
2000113e:	2100      	movls	r1, #0
20001140:	f04f 35ff 	mov.w	r5, #4294967295
20001144:	fa20 f601 	lsr.w	r6, r0, r1
20001148:	fa05 f404 	lsl.w	r4, r5, r4
2000114c:	fa05 f101 	lsl.w	r1, r5, r1
20001150:	ea26 0404 	bic.w	r4, r6, r4
20001154:	ea20 0001 	bic.w	r0, r0, r1
20001158:	6014      	str	r4, [r2, #0]
2000115a:	6018      	str	r0, [r3, #0]
2000115c:	bd70      	pop	{r4, r5, r6, pc}
2000115e:	bf00      	nop
20001160:	e000ed14 	.word	0xe000ed14

20001164 <HAL_NVIC_SetPendingIRQ>:
20001164:	2800      	cmp	r0, #0
20001166:	db09      	blt.n	2000117c <HAL_NVIC_SetPendingIRQ+0x18>
20001168:	0943      	lsrs	r3, r0, #5
2000116a:	2201      	movs	r2, #1
2000116c:	f000 001f 	and.w	r0, r0, #31
20001170:	fa02 f000 	lsl.w	r0, r2, r0
20001174:	3340      	adds	r3, #64	; 0x40
20001176:	4a02      	ldr	r2, [pc, #8]	; (20001180 <HAL_NVIC_SetPendingIRQ+0x1c>)
20001178:	f842 0023 	str.w	r0, [r2, r3, lsl #2]
2000117c:	4770      	bx	lr
2000117e:	bf00      	nop
20001180:	e000e100 	.word	0xe000e100

20001184 <HAL_NVIC_GetPendingIRQ>:
20001184:	1e03      	subs	r3, r0, #0
20001186:	bfa1      	itttt	ge
20001188:	095a      	lsrge	r2, r3, #5
2000118a:	3240      	addge	r2, #64	; 0x40
2000118c:	4905      	ldrge	r1, [pc, #20]	; (200011a4 <HAL_NVIC_GetPendingIRQ+0x20>)
2000118e:	f851 0022 	ldrge.w	r0, [r1, r2, lsl #2]
20001192:	bfa3      	ittte	ge
20001194:	f003 031f 	andge.w	r3, r3, #31
20001198:	40d8      	lsrge	r0, r3
2000119a:	f000 0001 	andge.w	r0, r0, #1
2000119e:	2000      	movlt	r0, #0
200011a0:	4770      	bx	lr
200011a2:	bf00      	nop
200011a4:	e000e100 	.word	0xe000e100

200011a8 <HAL_NVIC_ClearPendingIRQ>:
200011a8:	2800      	cmp	r0, #0
200011aa:	db09      	blt.n	200011c0 <HAL_NVIC_ClearPendingIRQ+0x18>
200011ac:	0943      	lsrs	r3, r0, #5
200011ae:	2201      	movs	r2, #1
200011b0:	f000 001f 	and.w	r0, r0, #31
200011b4:	fa02 f000 	lsl.w	r0, r2, r0
200011b8:	3360      	adds	r3, #96	; 0x60
200011ba:	4a02      	ldr	r2, [pc, #8]	; (200011c4 <HAL_NVIC_ClearPendingIRQ+0x1c>)
200011bc:	f842 0023 	str.w	r0, [r2, r3, lsl #2]
200011c0:	4770      	bx	lr
200011c2:	bf00      	nop
200011c4:	e000e100 	.word	0xe000e100

200011c8 <HAL_NVIC_GetActive>:
200011c8:	1e03      	subs	r3, r0, #0
200011ca:	bfa1      	itttt	ge
200011cc:	095a      	lsrge	r2, r3, #5
200011ce:	3280      	addge	r2, #128	; 0x80
200011d0:	4905      	ldrge	r1, [pc, #20]	; (200011e8 <HAL_NVIC_GetActive+0x20>)
200011d2:	f851 0022 	ldrge.w	r0, [r1, r2, lsl #2]
200011d6:	bfa3      	ittte	ge
200011d8:	f003 031f 	andge.w	r3, r3, #31
200011dc:	40d8      	lsrge	r0, r3
200011de:	f000 0001 	andge.w	r0, r0, #1
200011e2:	2000      	movlt	r0, #0
200011e4:	4770      	bx	lr
200011e6:	bf00      	nop
200011e8:	e000e100 	.word	0xe000e100

200011ec <HAL_SYSTICK_CLKSourceConfig>:
200011ec:	4b04      	ldr	r3, [pc, #16]	; (20001200 <HAL_SYSTICK_CLKSourceConfig+0x14>)
200011ee:	681a      	ldr	r2, [r3, #0]
200011f0:	2804      	cmp	r0, #4
200011f2:	bf0c      	ite	eq
200011f4:	f042 0204 	orreq.w	r2, r2, #4
200011f8:	f022 0204 	bicne.w	r2, r2, #4
200011fc:	601a      	str	r2, [r3, #0]
200011fe:	4770      	bx	lr
20001200:	e000e010 	.word	0xe000e010

20001204 <HAL_SYSTICK_Callback>:
20001204:	4770      	bx	lr

20001206 <HAL_SYSTICK_IRQHandler>:
20001206:	b508      	push	{r3, lr}
20001208:	f7ff fffc 	bl	20001204 <HAL_SYSTICK_Callback>
2000120c:	bd08      	pop	{r3, pc}
	...

20001210 <DMA_CalcBaseAndBitshift>:
20001210:	6803      	ldr	r3, [r0, #0]
20001212:	b2da      	uxtb	r2, r3
20001214:	f423 737f 	bic.w	r3, r3, #1020	; 0x3fc
20001218:	f023 0303 	bic.w	r3, r3, #3
2000121c:	2118      	movs	r1, #24
2000121e:	3a10      	subs	r2, #16
20001220:	fbb2 f2f1 	udiv	r2, r2, r1
20001224:	4904      	ldr	r1, [pc, #16]	; (20001238 <DMA_CalcBaseAndBitshift+0x28>)
20001226:	2a03      	cmp	r2, #3
20001228:	bf88      	it	hi
2000122a:	3304      	addhi	r3, #4
2000122c:	5c89      	ldrb	r1, [r1, r2]
2000122e:	6583      	str	r3, [r0, #88]	; 0x58
20001230:	65c1      	str	r1, [r0, #92]	; 0x5c
20001232:	6d80      	ldr	r0, [r0, #88]	; 0x58
20001234:	4770      	bx	lr
20001236:	bf00      	nop
20001238:	20003928 	.word	0x20003928

2000123c <HAL_DMA_Init>:
2000123c:	b570      	push	{r4, r5, r6, lr}
2000123e:	4604      	mov	r4, r0
20001240:	f7ff fddc 	bl	20000dfc <HAL_GetTick>
20001244:	4605      	mov	r5, r0
20001246:	2c00      	cmp	r4, #0
20001248:	d071      	beq.n	2000132e <HAL_DMA_Init+0xf2>
2000124a:	2300      	movs	r3, #0
2000124c:	f884 3034 	strb.w	r3, [r4, #52]	; 0x34
20001250:	6822      	ldr	r2, [r4, #0]
20001252:	2302      	movs	r3, #2
20001254:	f884 3035 	strb.w	r3, [r4, #53]	; 0x35
20001258:	6813      	ldr	r3, [r2, #0]
2000125a:	f023 0301 	bic.w	r3, r3, #1
2000125e:	6013      	str	r3, [r2, #0]
20001260:	6821      	ldr	r1, [r4, #0]
20001262:	680b      	ldr	r3, [r1, #0]
20001264:	07d8      	lsls	r0, r3, #31
20001266:	d43c      	bmi.n	200012e2 <HAL_DMA_Init+0xa6>
20001268:	680b      	ldr	r3, [r1, #0]
2000126a:	4d32      	ldr	r5, [pc, #200]	; (20001334 <HAL_DMA_Init+0xf8>)
2000126c:	69a0      	ldr	r0, [r4, #24]
2000126e:	401d      	ands	r5, r3
20001270:	e9d4 2301 	ldrd	r2, r3, [r4, #4]
20001274:	4313      	orrs	r3, r2
20001276:	68e2      	ldr	r2, [r4, #12]
20001278:	4313      	orrs	r3, r2
2000127a:	6922      	ldr	r2, [r4, #16]
2000127c:	4313      	orrs	r3, r2
2000127e:	6962      	ldr	r2, [r4, #20]
20001280:	4313      	orrs	r3, r2
20001282:	69e2      	ldr	r2, [r4, #28]
20001284:	4303      	orrs	r3, r0
20001286:	4313      	orrs	r3, r2
20001288:	6a22      	ldr	r2, [r4, #32]
2000128a:	4313      	orrs	r3, r2
2000128c:	6a62      	ldr	r2, [r4, #36]	; 0x24
2000128e:	2a04      	cmp	r2, #4
20001290:	ea43 0305 	orr.w	r3, r3, r5
20001294:	bf02      	ittt	eq
20001296:	e9d4 560b 	ldrdeq	r5, r6, [r4, #44]	; 0x2c
2000129a:	4335      	orreq	r5, r6
2000129c:	432b      	orreq	r3, r5
2000129e:	600b      	str	r3, [r1, #0]
200012a0:	694b      	ldr	r3, [r1, #20]
200012a2:	2a04      	cmp	r2, #4
200012a4:	f023 0307 	bic.w	r3, r3, #7
200012a8:	ea43 0302 	orr.w	r3, r3, r2
200012ac:	d10b      	bne.n	200012c6 <HAL_DMA_Init+0x8a>
200012ae:	6aa2      	ldr	r2, [r4, #40]	; 0x28
200012b0:	6ae5      	ldr	r5, [r4, #44]	; 0x2c
200012b2:	4313      	orrs	r3, r2
200012b4:	b13d      	cbz	r5, 200012c6 <HAL_DMA_Init+0x8a>
200012b6:	b9f8      	cbnz	r0, 200012f8 <HAL_DMA_Init+0xbc>
200012b8:	2a01      	cmp	r2, #1
200012ba:	d02d      	beq.n	20001318 <HAL_DMA_Init+0xdc>
200012bc:	d301      	bcc.n	200012c2 <HAL_DMA_Init+0x86>
200012be:	2a02      	cmp	r2, #2
200012c0:	d101      	bne.n	200012c6 <HAL_DMA_Init+0x8a>
200012c2:	01ea      	lsls	r2, r5, #7
200012c4:	d42b      	bmi.n	2000131e <HAL_DMA_Init+0xe2>
200012c6:	614b      	str	r3, [r1, #20]
200012c8:	4620      	mov	r0, r4
200012ca:	f7ff ffa1 	bl	20001210 <DMA_CalcBaseAndBitshift>
200012ce:	6de2      	ldr	r2, [r4, #92]	; 0x5c
200012d0:	233f      	movs	r3, #63	; 0x3f
200012d2:	4093      	lsls	r3, r2
200012d4:	6083      	str	r3, [r0, #8]
200012d6:	2000      	movs	r0, #0
200012d8:	2301      	movs	r3, #1
200012da:	6560      	str	r0, [r4, #84]	; 0x54
200012dc:	f884 3035 	strb.w	r3, [r4, #53]	; 0x35
200012e0:	e009      	b.n	200012f6 <HAL_DMA_Init+0xba>
200012e2:	f7ff fd8b 	bl	20000dfc <HAL_GetTick>
200012e6:	1b40      	subs	r0, r0, r5
200012e8:	2805      	cmp	r0, #5
200012ea:	d9b9      	bls.n	20001260 <HAL_DMA_Init+0x24>
200012ec:	2320      	movs	r3, #32
200012ee:	6563      	str	r3, [r4, #84]	; 0x54
200012f0:	2003      	movs	r0, #3
200012f2:	f884 0035 	strb.w	r0, [r4, #53]	; 0x35
200012f6:	bd70      	pop	{r4, r5, r6, pc}
200012f8:	f5b0 5f00 	cmp.w	r0, #8192	; 0x2000
200012fc:	d113      	bne.n	20001326 <HAL_DMA_Init+0xea>
200012fe:	2a03      	cmp	r2, #3
20001300:	d8e1      	bhi.n	200012c6 <HAL_DMA_Init+0x8a>
20001302:	a001      	add	r0, pc, #4	; (adr r0, 20001308 <HAL_DMA_Init+0xcc>)
20001304:	f850 f022 	ldr.w	pc, [r0, r2, lsl #2]
20001308:	2000131f 	.word	0x2000131f
2000130c:	200012c3 	.word	0x200012c3
20001310:	2000131f 	.word	0x2000131f
20001314:	20001319 	.word	0x20001319
20001318:	f1b5 7fc0 	cmp.w	r5, #25165824	; 0x1800000
2000131c:	d1d3      	bne.n	200012c6 <HAL_DMA_Init+0x8a>
2000131e:	2340      	movs	r3, #64	; 0x40
20001320:	6563      	str	r3, [r4, #84]	; 0x54
20001322:	2001      	movs	r0, #1
20001324:	e7e5      	b.n	200012f2 <HAL_DMA_Init+0xb6>
20001326:	2a02      	cmp	r2, #2
20001328:	d9f9      	bls.n	2000131e <HAL_DMA_Init+0xe2>
2000132a:	2a03      	cmp	r2, #3
2000132c:	e7c8      	b.n	200012c0 <HAL_DMA_Init+0x84>
2000132e:	2001      	movs	r0, #1
20001330:	e7e1      	b.n	200012f6 <HAL_DMA_Init+0xba>
20001332:	bf00      	nop
20001334:	f010803f 	.word	0xf010803f

20001338 <HAL_DMA_DeInit>:
20001338:	b538      	push	{r3, r4, r5, lr}
2000133a:	4605      	mov	r5, r0
2000133c:	b320      	cbz	r0, 20001388 <HAL_DMA_DeInit+0x50>
2000133e:	f890 4035 	ldrb.w	r4, [r0, #53]	; 0x35
20001342:	b2e4      	uxtb	r4, r4
20001344:	2c02      	cmp	r4, #2
20001346:	d01d      	beq.n	20001384 <HAL_DMA_DeInit+0x4c>
20001348:	6803      	ldr	r3, [r0, #0]
2000134a:	681a      	ldr	r2, [r3, #0]
2000134c:	f022 0201 	bic.w	r2, r2, #1
20001350:	2400      	movs	r4, #0
20001352:	601a      	str	r2, [r3, #0]
20001354:	2221      	movs	r2, #33	; 0x21
20001356:	601c      	str	r4, [r3, #0]
20001358:	605c      	str	r4, [r3, #4]
2000135a:	609c      	str	r4, [r3, #8]
2000135c:	60dc      	str	r4, [r3, #12]
2000135e:	611c      	str	r4, [r3, #16]
20001360:	615a      	str	r2, [r3, #20]
20001362:	f7ff ff55 	bl	20001210 <DMA_CalcBaseAndBitshift>
20001366:	6dea      	ldr	r2, [r5, #92]	; 0x5c
20001368:	233f      	movs	r3, #63	; 0x3f
2000136a:	4093      	lsls	r3, r2
2000136c:	e9c5 440f 	strd	r4, r4, [r5, #60]	; 0x3c
20001370:	e9c5 4411 	strd	r4, r4, [r5, #68]	; 0x44
20001374:	e9c5 4413 	strd	r4, r4, [r5, #76]	; 0x4c
20001378:	6083      	str	r3, [r0, #8]
2000137a:	656c      	str	r4, [r5, #84]	; 0x54
2000137c:	f885 4034 	strb.w	r4, [r5, #52]	; 0x34
20001380:	f885 4035 	strb.w	r4, [r5, #53]	; 0x35
20001384:	4620      	mov	r0, r4
20001386:	e000      	b.n	2000138a <HAL_DMA_DeInit+0x52>
20001388:	2001      	movs	r0, #1
2000138a:	bd38      	pop	{r3, r4, r5, pc}

2000138c <HAL_DMA_Start>:
2000138c:	b530      	push	{r4, r5, lr}
2000138e:	f890 4034 	ldrb.w	r4, [r0, #52]	; 0x34
20001392:	2c01      	cmp	r4, #1
20001394:	d022      	beq.n	200013dc <HAL_DMA_Start+0x50>
20001396:	2401      	movs	r4, #1
20001398:	f880 4034 	strb.w	r4, [r0, #52]	; 0x34
2000139c:	f890 4035 	ldrb.w	r4, [r0, #53]	; 0x35
200013a0:	2c01      	cmp	r4, #1
200013a2:	f04f 0500 	mov.w	r5, #0
200013a6:	f04f 0402 	mov.w	r4, #2
200013aa:	d115      	bne.n	200013d8 <HAL_DMA_Start+0x4c>
200013ac:	f880 4035 	strb.w	r4, [r0, #53]	; 0x35
200013b0:	6804      	ldr	r4, [r0, #0]
200013b2:	6545      	str	r5, [r0, #84]	; 0x54
200013b4:	6825      	ldr	r5, [r4, #0]
200013b6:	f425 2580 	bic.w	r5, r5, #262144	; 0x40000
200013ba:	6025      	str	r5, [r4, #0]
200013bc:	6063      	str	r3, [r4, #4]
200013be:	6883      	ldr	r3, [r0, #8]
200013c0:	2b40      	cmp	r3, #64	; 0x40
200013c2:	bf0b      	itete	eq
200013c4:	60a2      	streq	r2, [r4, #8]
200013c6:	60a1      	strne	r1, [r4, #8]
200013c8:	60e1      	streq	r1, [r4, #12]
200013ca:	60e2      	strne	r2, [r4, #12]
200013cc:	6823      	ldr	r3, [r4, #0]
200013ce:	f043 0301 	orr.w	r3, r3, #1
200013d2:	6023      	str	r3, [r4, #0]
200013d4:	2000      	movs	r0, #0
200013d6:	bd30      	pop	{r4, r5, pc}
200013d8:	f880 5034 	strb.w	r5, [r0, #52]	; 0x34
200013dc:	2002      	movs	r0, #2
200013de:	e7fa      	b.n	200013d6 <HAL_DMA_Start+0x4a>

200013e0 <HAL_DMA_Start_IT>:
200013e0:	b570      	push	{r4, r5, r6, lr}
200013e2:	f890 4034 	ldrb.w	r4, [r0, #52]	; 0x34
200013e6:	2c01      	cmp	r4, #1
200013e8:	d032      	beq.n	20001450 <HAL_DMA_Start_IT+0x70>
200013ea:	2401      	movs	r4, #1
200013ec:	f880 4034 	strb.w	r4, [r0, #52]	; 0x34
200013f0:	f890 4035 	ldrb.w	r4, [r0, #53]	; 0x35
200013f4:	6d86      	ldr	r6, [r0, #88]	; 0x58
200013f6:	2c01      	cmp	r4, #1
200013f8:	f04f 0500 	mov.w	r5, #0
200013fc:	f04f 0402 	mov.w	r4, #2
20001400:	d124      	bne.n	2000144c <HAL_DMA_Start_IT+0x6c>
20001402:	f880 4035 	strb.w	r4, [r0, #53]	; 0x35
20001406:	6804      	ldr	r4, [r0, #0]
20001408:	6545      	str	r5, [r0, #84]	; 0x54
2000140a:	6825      	ldr	r5, [r4, #0]
2000140c:	f425 2580 	bic.w	r5, r5, #262144	; 0x40000
20001410:	6025      	str	r5, [r4, #0]
20001412:	6063      	str	r3, [r4, #4]
20001414:	6883      	ldr	r3, [r0, #8]
20001416:	2b40      	cmp	r3, #64	; 0x40
20001418:	bf0e      	itee	eq
2000141a:	60a2      	streq	r2, [r4, #8]
2000141c:	60a1      	strne	r1, [r4, #8]
2000141e:	60e2      	strne	r2, [r4, #12]
20001420:	6dc2      	ldr	r2, [r0, #92]	; 0x5c
20001422:	bf08      	it	eq
20001424:	60e1      	streq	r1, [r4, #12]
20001426:	233f      	movs	r3, #63	; 0x3f
20001428:	4093      	lsls	r3, r2
2000142a:	60b3      	str	r3, [r6, #8]
2000142c:	6823      	ldr	r3, [r4, #0]
2000142e:	f043 0316 	orr.w	r3, r3, #22
20001432:	6023      	str	r3, [r4, #0]
20001434:	6c03      	ldr	r3, [r0, #64]	; 0x40
20001436:	b11b      	cbz	r3, 20001440 <HAL_DMA_Start_IT+0x60>
20001438:	6823      	ldr	r3, [r4, #0]
2000143a:	f043 0308 	orr.w	r3, r3, #8
2000143e:	6023      	str	r3, [r4, #0]
20001440:	6823      	ldr	r3, [r4, #0]
20001442:	f043 0301 	orr.w	r3, r3, #1
20001446:	6023      	str	r3, [r4, #0]
20001448:	2000      	movs	r0, #0
2000144a:	bd70      	pop	{r4, r5, r6, pc}
2000144c:	f880 5034 	strb.w	r5, [r0, #52]	; 0x34
20001450:	2002      	movs	r0, #2
20001452:	e7fa      	b.n	2000144a <HAL_DMA_Start_IT+0x6a>

20001454 <HAL_DMA_Abort>:
20001454:	b570      	push	{r4, r5, r6, lr}
20001456:	4604      	mov	r4, r0
20001458:	6d85      	ldr	r5, [r0, #88]	; 0x58
2000145a:	f7ff fccf 	bl	20000dfc <HAL_GetTick>
2000145e:	f894 3035 	ldrb.w	r3, [r4, #53]	; 0x35
20001462:	2b02      	cmp	r3, #2
20001464:	4606      	mov	r6, r0
20001466:	d006      	beq.n	20001476 <HAL_DMA_Abort+0x22>
20001468:	2380      	movs	r3, #128	; 0x80
2000146a:	6563      	str	r3, [r4, #84]	; 0x54
2000146c:	2300      	movs	r3, #0
2000146e:	f884 3034 	strb.w	r3, [r4, #52]	; 0x34
20001472:	2001      	movs	r0, #1
20001474:	bd70      	pop	{r4, r5, r6, pc}
20001476:	6823      	ldr	r3, [r4, #0]
20001478:	681a      	ldr	r2, [r3, #0]
2000147a:	f022 0216 	bic.w	r2, r2, #22
2000147e:	601a      	str	r2, [r3, #0]
20001480:	695a      	ldr	r2, [r3, #20]
20001482:	f022 0280 	bic.w	r2, r2, #128	; 0x80
20001486:	615a      	str	r2, [r3, #20]
20001488:	6c22      	ldr	r2, [r4, #64]	; 0x40
2000148a:	b90a      	cbnz	r2, 20001490 <HAL_DMA_Abort+0x3c>
2000148c:	6ca2      	ldr	r2, [r4, #72]	; 0x48
2000148e:	b11a      	cbz	r2, 20001498 <HAL_DMA_Abort+0x44>
20001490:	681a      	ldr	r2, [r3, #0]
20001492:	f022 0208 	bic.w	r2, r2, #8
20001496:	601a      	str	r2, [r3, #0]
20001498:	681a      	ldr	r2, [r3, #0]
2000149a:	f022 0201 	bic.w	r2, r2, #1
2000149e:	601a      	str	r2, [r3, #0]
200014a0:	6823      	ldr	r3, [r4, #0]
200014a2:	6818      	ldr	r0, [r3, #0]
200014a4:	f010 0001 	ands.w	r0, r0, #1
200014a8:	d109      	bne.n	200014be <HAL_DMA_Abort+0x6a>
200014aa:	6de2      	ldr	r2, [r4, #92]	; 0x5c
200014ac:	233f      	movs	r3, #63	; 0x3f
200014ae:	4093      	lsls	r3, r2
200014b0:	60ab      	str	r3, [r5, #8]
200014b2:	2301      	movs	r3, #1
200014b4:	f884 0034 	strb.w	r0, [r4, #52]	; 0x34
200014b8:	f884 3035 	strb.w	r3, [r4, #53]	; 0x35
200014bc:	e7da      	b.n	20001474 <HAL_DMA_Abort+0x20>
200014be:	f7ff fc9d 	bl	20000dfc <HAL_GetTick>
200014c2:	1b80      	subs	r0, r0, r6
200014c4:	2805      	cmp	r0, #5
200014c6:	d9eb      	bls.n	200014a0 <HAL_DMA_Abort+0x4c>
200014c8:	2320      	movs	r3, #32
200014ca:	6563      	str	r3, [r4, #84]	; 0x54
200014cc:	2003      	movs	r0, #3
200014ce:	2300      	movs	r3, #0
200014d0:	f884 3034 	strb.w	r3, [r4, #52]	; 0x34
200014d4:	f884 0035 	strb.w	r0, [r4, #53]	; 0x35
200014d8:	e7cc      	b.n	20001474 <HAL_DMA_Abort+0x20>

200014da <HAL_DMA_Abort_IT>:
200014da:	f890 3035 	ldrb.w	r3, [r0, #53]	; 0x35
200014de:	2b02      	cmp	r3, #2
200014e0:	d003      	beq.n	200014ea <HAL_DMA_Abort_IT+0x10>
200014e2:	2380      	movs	r3, #128	; 0x80
200014e4:	6543      	str	r3, [r0, #84]	; 0x54
200014e6:	2001      	movs	r0, #1
200014e8:	4770      	bx	lr
200014ea:	6802      	ldr	r2, [r0, #0]
200014ec:	2305      	movs	r3, #5
200014ee:	f880 3035 	strb.w	r3, [r0, #53]	; 0x35
200014f2:	6813      	ldr	r3, [r2, #0]
200014f4:	f023 0301 	bic.w	r3, r3, #1
200014f8:	6013      	str	r3, [r2, #0]
200014fa:	2000      	movs	r0, #0
200014fc:	4770      	bx	lr

200014fe <HAL_DMA_PollForTransfer>:
200014fe:	e92d 4ff8 	stmdb	sp!, {r3, r4, r5, r6, r7, r8, r9, sl, fp, lr}
20001502:	4604      	mov	r4, r0
20001504:	460d      	mov	r5, r1
20001506:	4690      	mov	r8, r2
20001508:	f7ff fc78 	bl	20000dfc <HAL_GetTick>
2000150c:	f894 3035 	ldrb.w	r3, [r4, #53]	; 0x35
20001510:	2b02      	cmp	r3, #2
20001512:	4681      	mov	r9, r0
20001514:	d007      	beq.n	20001526 <HAL_DMA_PollForTransfer+0x28>
20001516:	2380      	movs	r3, #128	; 0x80
20001518:	6563      	str	r3, [r4, #84]	; 0x54
2000151a:	2300      	movs	r3, #0
2000151c:	f884 3034 	strb.w	r3, [r4, #52]	; 0x34
20001520:	2001      	movs	r0, #1
20001522:	e8bd 8ff8 	ldmia.w	sp!, {r3, r4, r5, r6, r7, r8, r9, sl, fp, pc}
20001526:	6823      	ldr	r3, [r4, #0]
20001528:	681b      	ldr	r3, [r3, #0]
2000152a:	05d9      	lsls	r1, r3, #23
2000152c:	d503      	bpl.n	20001536 <HAL_DMA_PollForTransfer+0x38>
2000152e:	f44f 7380 	mov.w	r3, #256	; 0x100
20001532:	6563      	str	r3, [r4, #84]	; 0x54
20001534:	e7f4      	b.n	20001520 <HAL_DMA_PollForTransfer+0x22>
20001536:	6de7      	ldr	r7, [r4, #92]	; 0x5c
20001538:	bb0d      	cbnz	r5, 2000157e <HAL_DMA_PollForTransfer+0x80>
2000153a:	2320      	movs	r3, #32
2000153c:	6da6      	ldr	r6, [r4, #88]	; 0x58
2000153e:	6831      	ldr	r1, [r6, #0]
20001540:	fa03 f707 	lsl.w	r7, r3, r7
20001544:	f04f 0a08 	mov.w	sl, #8
20001548:	f04f 0b01 	mov.w	fp, #1
2000154c:	420f      	tst	r7, r1
2000154e:	d102      	bne.n	20001556 <HAL_DMA_PollForTransfer+0x58>
20001550:	6d63      	ldr	r3, [r4, #84]	; 0x54
20001552:	07da      	lsls	r2, r3, #31
20001554:	d515      	bpl.n	20001582 <HAL_DMA_PollForTransfer+0x84>
20001556:	6d63      	ldr	r3, [r4, #84]	; 0x54
20001558:	2b00      	cmp	r3, #0
2000155a:	d046      	beq.n	200015ea <HAL_DMA_PollForTransfer+0xec>
2000155c:	6d63      	ldr	r3, [r4, #84]	; 0x54
2000155e:	07db      	lsls	r3, r3, #31
20001560:	d543      	bpl.n	200015ea <HAL_DMA_PollForTransfer+0xec>
20001562:	4620      	mov	r0, r4
20001564:	f7ff ff76 	bl	20001454 <HAL_DMA_Abort>
20001568:	6de2      	ldr	r2, [r4, #92]	; 0x5c
2000156a:	2330      	movs	r3, #48	; 0x30
2000156c:	4093      	lsls	r3, r2
2000156e:	60b3      	str	r3, [r6, #8]
20001570:	2001      	movs	r0, #1
20001572:	2300      	movs	r3, #0
20001574:	f884 3034 	strb.w	r3, [r4, #52]	; 0x34
20001578:	f884 0035 	strb.w	r0, [r4, #53]	; 0x35
2000157c:	e7d1      	b.n	20001522 <HAL_DMA_PollForTransfer+0x24>
2000157e:	2310      	movs	r3, #16
20001580:	e7dc      	b.n	2000153c <HAL_DMA_PollForTransfer+0x3e>
20001582:	f1b8 3fff 	cmp.w	r8, #4294967295
20001586:	d012      	beq.n	200015ae <HAL_DMA_PollForTransfer+0xb0>
20001588:	f1b8 0f00 	cmp.w	r8, #0
2000158c:	d109      	bne.n	200015a2 <HAL_DMA_PollForTransfer+0xa4>
2000158e:	2320      	movs	r3, #32
20001590:	6563      	str	r3, [r4, #84]	; 0x54
20001592:	2300      	movs	r3, #0
20001594:	f884 3034 	strb.w	r3, [r4, #52]	; 0x34
20001598:	2301      	movs	r3, #1
2000159a:	f884 3035 	strb.w	r3, [r4, #53]	; 0x35
2000159e:	2003      	movs	r0, #3
200015a0:	e7bf      	b.n	20001522 <HAL_DMA_PollForTransfer+0x24>
200015a2:	f7ff fc2b 	bl	20000dfc <HAL_GetTick>
200015a6:	eba0 0009 	sub.w	r0, r0, r9
200015aa:	4540      	cmp	r0, r8
200015ac:	d8ef      	bhi.n	2000158e <HAL_DMA_PollForTransfer+0x90>
200015ae:	6de3      	ldr	r3, [r4, #92]	; 0x5c
200015b0:	6831      	ldr	r1, [r6, #0]
200015b2:	fa0a f203 	lsl.w	r2, sl, r3
200015b6:	420a      	tst	r2, r1
200015b8:	bf1f      	itttt	ne
200015ba:	6d60      	ldrne	r0, [r4, #84]	; 0x54
200015bc:	f040 0001 	orrne.w	r0, r0, #1
200015c0:	6560      	strne	r0, [r4, #84]	; 0x54
200015c2:	60b2      	strne	r2, [r6, #8]
200015c4:	fa0b f203 	lsl.w	r2, fp, r3
200015c8:	420a      	tst	r2, r1
200015ca:	bf1f      	itttt	ne
200015cc:	6d60      	ldrne	r0, [r4, #84]	; 0x54
200015ce:	f040 0002 	orrne.w	r0, r0, #2
200015d2:	6560      	strne	r0, [r4, #84]	; 0x54
200015d4:	60b2      	strne	r2, [r6, #8]
200015d6:	2204      	movs	r2, #4
200015d8:	fa02 f303 	lsl.w	r3, r2, r3
200015dc:	420b      	tst	r3, r1
200015de:	bf1f      	itttt	ne
200015e0:	6d60      	ldrne	r0, [r4, #84]	; 0x54
200015e2:	4310      	orrne	r0, r2
200015e4:	6560      	strne	r0, [r4, #84]	; 0x54
200015e6:	60b3      	strne	r3, [r6, #8]
200015e8:	e7b0      	b.n	2000154c <HAL_DMA_PollForTransfer+0x4e>
200015ea:	6de2      	ldr	r2, [r4, #92]	; 0x5c
200015ec:	b94d      	cbnz	r5, 20001602 <HAL_DMA_PollForTransfer+0x104>
200015ee:	2330      	movs	r3, #48	; 0x30
200015f0:	4093      	lsls	r3, r2
200015f2:	60b3      	str	r3, [r6, #8]
200015f4:	2301      	movs	r3, #1
200015f6:	f884 5034 	strb.w	r5, [r4, #52]	; 0x34
200015fa:	f884 3035 	strb.w	r3, [r4, #53]	; 0x35
200015fe:	2000      	movs	r0, #0
20001600:	e78f      	b.n	20001522 <HAL_DMA_PollForTransfer+0x24>
20001602:	2310      	movs	r3, #16
20001604:	4093      	lsls	r3, r2
20001606:	60b3      	str	r3, [r6, #8]
20001608:	e7f9      	b.n	200015fe <HAL_DMA_PollForTransfer+0x100>
	...

2000160c <HAL_DMA_IRQHandler>:
2000160c:	b5f7      	push	{r0, r1, r2, r4, r5, r6, r7, lr}
2000160e:	2300      	movs	r3, #0
20001610:	9301      	str	r3, [sp, #4]
20001612:	4b5c      	ldr	r3, [pc, #368]	; (20001784 <HAL_DMA_IRQHandler+0x178>)
20001614:	6d85      	ldr	r5, [r0, #88]	; 0x58
20001616:	681f      	ldr	r7, [r3, #0]
20001618:	6dc3      	ldr	r3, [r0, #92]	; 0x5c
2000161a:	682e      	ldr	r6, [r5, #0]
2000161c:	2208      	movs	r2, #8
2000161e:	409a      	lsls	r2, r3
20001620:	4232      	tst	r2, r6
20001622:	4604      	mov	r4, r0
20001624:	d00c      	beq.n	20001640 <HAL_DMA_IRQHandler+0x34>
20001626:	6801      	ldr	r1, [r0, #0]
20001628:	6808      	ldr	r0, [r1, #0]
2000162a:	0740      	lsls	r0, r0, #29
2000162c:	d508      	bpl.n	20001640 <HAL_DMA_IRQHandler+0x34>
2000162e:	6808      	ldr	r0, [r1, #0]
20001630:	f020 0004 	bic.w	r0, r0, #4
20001634:	6008      	str	r0, [r1, #0]
20001636:	60aa      	str	r2, [r5, #8]
20001638:	6d62      	ldr	r2, [r4, #84]	; 0x54
2000163a:	f042 0201 	orr.w	r2, r2, #1
2000163e:	6562      	str	r2, [r4, #84]	; 0x54
20001640:	2201      	movs	r2, #1
20001642:	409a      	lsls	r2, r3
20001644:	4232      	tst	r2, r6
20001646:	d008      	beq.n	2000165a <HAL_DMA_IRQHandler+0x4e>
20001648:	6821      	ldr	r1, [r4, #0]
2000164a:	6949      	ldr	r1, [r1, #20]
2000164c:	0609      	lsls	r1, r1, #24
2000164e:	bf41      	itttt	mi
20001650:	60aa      	strmi	r2, [r5, #8]
20001652:	6d62      	ldrmi	r2, [r4, #84]	; 0x54
20001654:	f042 0202 	orrmi.w	r2, r2, #2
20001658:	6562      	strmi	r2, [r4, #84]	; 0x54
2000165a:	2204      	movs	r2, #4
2000165c:	409a      	lsls	r2, r3
2000165e:	4232      	tst	r2, r6
20001660:	d008      	beq.n	20001674 <HAL_DMA_IRQHandler+0x68>
20001662:	6821      	ldr	r1, [r4, #0]
20001664:	6809      	ldr	r1, [r1, #0]
20001666:	0788      	lsls	r0, r1, #30
20001668:	bf41      	itttt	mi
2000166a:	60aa      	strmi	r2, [r5, #8]
2000166c:	6d62      	ldrmi	r2, [r4, #84]	; 0x54
2000166e:	f042 0204 	orrmi.w	r2, r2, #4
20001672:	6562      	strmi	r2, [r4, #84]	; 0x54
20001674:	2210      	movs	r2, #16
20001676:	409a      	lsls	r2, r3
20001678:	4232      	tst	r2, r6
2000167a:	d010      	beq.n	2000169e <HAL_DMA_IRQHandler+0x92>
2000167c:	6823      	ldr	r3, [r4, #0]
2000167e:	6819      	ldr	r1, [r3, #0]
20001680:	0709      	lsls	r1, r1, #28
20001682:	d50c      	bpl.n	2000169e <HAL_DMA_IRQHandler+0x92>
20001684:	60aa      	str	r2, [r5, #8]
20001686:	681a      	ldr	r2, [r3, #0]
20001688:	0350      	lsls	r0, r2, #13
2000168a:	d537      	bpl.n	200016fc <HAL_DMA_IRQHandler+0xf0>
2000168c:	681b      	ldr	r3, [r3, #0]
2000168e:	0319      	lsls	r1, r3, #12
20001690:	d401      	bmi.n	20001696 <HAL_DMA_IRQHandler+0x8a>
20001692:	6c23      	ldr	r3, [r4, #64]	; 0x40
20001694:	e000      	b.n	20001698 <HAL_DMA_IRQHandler+0x8c>
20001696:	6ca3      	ldr	r3, [r4, #72]	; 0x48
20001698:	b10b      	cbz	r3, 2000169e <HAL_DMA_IRQHandler+0x92>
2000169a:	4620      	mov	r0, r4
2000169c:	4798      	blx	r3
2000169e:	6de1      	ldr	r1, [r4, #92]	; 0x5c
200016a0:	2220      	movs	r2, #32
200016a2:	408a      	lsls	r2, r1
200016a4:	4232      	tst	r2, r6
200016a6:	d03a      	beq.n	2000171e <HAL_DMA_IRQHandler+0x112>
200016a8:	6823      	ldr	r3, [r4, #0]
200016aa:	6818      	ldr	r0, [r3, #0]
200016ac:	06c6      	lsls	r6, r0, #27
200016ae:	d536      	bpl.n	2000171e <HAL_DMA_IRQHandler+0x112>
200016b0:	60aa      	str	r2, [r5, #8]
200016b2:	f894 2035 	ldrb.w	r2, [r4, #53]	; 0x35
200016b6:	2a05      	cmp	r2, #5
200016b8:	681a      	ldr	r2, [r3, #0]
200016ba:	d127      	bne.n	2000170c <HAL_DMA_IRQHandler+0x100>
200016bc:	f022 0216 	bic.w	r2, r2, #22
200016c0:	601a      	str	r2, [r3, #0]
200016c2:	695a      	ldr	r2, [r3, #20]
200016c4:	f022 0280 	bic.w	r2, r2, #128	; 0x80
200016c8:	615a      	str	r2, [r3, #20]
200016ca:	6c22      	ldr	r2, [r4, #64]	; 0x40
200016cc:	b90a      	cbnz	r2, 200016d2 <HAL_DMA_IRQHandler+0xc6>
200016ce:	6ca2      	ldr	r2, [r4, #72]	; 0x48
200016d0:	b11a      	cbz	r2, 200016da <HAL_DMA_IRQHandler+0xce>
200016d2:	681a      	ldr	r2, [r3, #0]
200016d4:	f022 0208 	bic.w	r2, r2, #8
200016d8:	601a      	str	r2, [r3, #0]
200016da:	233f      	movs	r3, #63	; 0x3f
200016dc:	408b      	lsls	r3, r1
200016de:	60ab      	str	r3, [r5, #8]
200016e0:	2300      	movs	r3, #0
200016e2:	f884 3034 	strb.w	r3, [r4, #52]	; 0x34
200016e6:	2301      	movs	r3, #1
200016e8:	f884 3035 	strb.w	r3, [r4, #53]	; 0x35
200016ec:	6d23      	ldr	r3, [r4, #80]	; 0x50
200016ee:	2b00      	cmp	r3, #0
200016f0:	d045      	beq.n	2000177e <HAL_DMA_IRQHandler+0x172>
200016f2:	4620      	mov	r0, r4
200016f4:	b003      	add	sp, #12
200016f6:	e8bd 40f0 	ldmia.w	sp!, {r4, r5, r6, r7, lr}
200016fa:	4718      	bx	r3
200016fc:	681a      	ldr	r2, [r3, #0]
200016fe:	05d2      	lsls	r2, r2, #23
20001700:	bf5e      	ittt	pl
20001702:	681a      	ldrpl	r2, [r3, #0]
20001704:	f022 0208 	bicpl.w	r2, r2, #8
20001708:	601a      	strpl	r2, [r3, #0]
2000170a:	e7c2      	b.n	20001692 <HAL_DMA_IRQHandler+0x86>
2000170c:	0350      	lsls	r0, r2, #13
2000170e:	d527      	bpl.n	20001760 <HAL_DMA_IRQHandler+0x154>
20001710:	681b      	ldr	r3, [r3, #0]
20001712:	0319      	lsls	r1, r3, #12
20001714:	d431      	bmi.n	2000177a <HAL_DMA_IRQHandler+0x16e>
20001716:	6c63      	ldr	r3, [r4, #68]	; 0x44
20001718:	b10b      	cbz	r3, 2000171e <HAL_DMA_IRQHandler+0x112>
2000171a:	4620      	mov	r0, r4
2000171c:	4798      	blx	r3
2000171e:	6d63      	ldr	r3, [r4, #84]	; 0x54
20001720:	b36b      	cbz	r3, 2000177e <HAL_DMA_IRQHandler+0x172>
20001722:	6d63      	ldr	r3, [r4, #84]	; 0x54
20001724:	07da      	lsls	r2, r3, #31
20001726:	d519      	bpl.n	2000175c <HAL_DMA_IRQHandler+0x150>
20001728:	2305      	movs	r3, #5
2000172a:	6822      	ldr	r2, [r4, #0]
2000172c:	f884 3035 	strb.w	r3, [r4, #53]	; 0x35
20001730:	6813      	ldr	r3, [r2, #0]
20001732:	f023 0301 	bic.w	r3, r3, #1
20001736:	6013      	str	r3, [r2, #0]
20001738:	f44f 5316 	mov.w	r3, #9600	; 0x2580
2000173c:	fbb7 f7f3 	udiv	r7, r7, r3
20001740:	9b01      	ldr	r3, [sp, #4]
20001742:	3301      	adds	r3, #1
20001744:	42bb      	cmp	r3, r7
20001746:	9301      	str	r3, [sp, #4]
20001748:	d802      	bhi.n	20001750 <HAL_DMA_IRQHandler+0x144>
2000174a:	6813      	ldr	r3, [r2, #0]
2000174c:	07db      	lsls	r3, r3, #31
2000174e:	d4f7      	bmi.n	20001740 <HAL_DMA_IRQHandler+0x134>
20001750:	2300      	movs	r3, #0
20001752:	f884 3034 	strb.w	r3, [r4, #52]	; 0x34
20001756:	2301      	movs	r3, #1
20001758:	f884 3035 	strb.w	r3, [r4, #53]	; 0x35
2000175c:	6ce3      	ldr	r3, [r4, #76]	; 0x4c
2000175e:	e7c6      	b.n	200016ee <HAL_DMA_IRQHandler+0xe2>
20001760:	681a      	ldr	r2, [r3, #0]
20001762:	f412 7280 	ands.w	r2, r2, #256	; 0x100
20001766:	d108      	bne.n	2000177a <HAL_DMA_IRQHandler+0x16e>
20001768:	6819      	ldr	r1, [r3, #0]
2000176a:	f021 0110 	bic.w	r1, r1, #16
2000176e:	6019      	str	r1, [r3, #0]
20001770:	2301      	movs	r3, #1
20001772:	f884 2034 	strb.w	r2, [r4, #52]	; 0x34
20001776:	f884 3035 	strb.w	r3, [r4, #53]	; 0x35
2000177a:	6be3      	ldr	r3, [r4, #60]	; 0x3c
2000177c:	e7cc      	b.n	20001718 <HAL_DMA_IRQHandler+0x10c>
2000177e:	b003      	add	sp, #12
20001780:	bdf0      	pop	{r4, r5, r6, r7, pc}
20001782:	bf00      	nop
20001784:	20003938 	.word	0x20003938

20001788 <HAL_DMA_RegisterCallback>:
20001788:	f890 3034 	ldrb.w	r3, [r0, #52]	; 0x34
2000178c:	2b01      	cmp	r3, #1
2000178e:	b510      	push	{r4, lr}
20001790:	4604      	mov	r4, r0
20001792:	d01f      	beq.n	200017d4 <HAL_DMA_RegisterCallback+0x4c>
20001794:	2301      	movs	r3, #1
20001796:	f880 3034 	strb.w	r3, [r0, #52]	; 0x34
2000179a:	f890 0035 	ldrb.w	r0, [r0, #53]	; 0x35
2000179e:	4298      	cmp	r0, r3
200017a0:	d113      	bne.n	200017ca <HAL_DMA_RegisterCallback+0x42>
200017a2:	2905      	cmp	r1, #5
200017a4:	d805      	bhi.n	200017b2 <HAL_DMA_RegisterCallback+0x2a>
200017a6:	e8df f001 	tbb	[pc, r1]
200017aa:	0603      	.short	0x0603
200017ac:	0e0c0a08 	.word	0x0e0c0a08
200017b0:	63e2      	str	r2, [r4, #60]	; 0x3c
200017b2:	2000      	movs	r0, #0
200017b4:	e00a      	b.n	200017cc <HAL_DMA_RegisterCallback+0x44>
200017b6:	6422      	str	r2, [r4, #64]	; 0x40
200017b8:	e7fb      	b.n	200017b2 <HAL_DMA_RegisterCallback+0x2a>
200017ba:	6462      	str	r2, [r4, #68]	; 0x44
200017bc:	e7f9      	b.n	200017b2 <HAL_DMA_RegisterCallback+0x2a>
200017be:	64a2      	str	r2, [r4, #72]	; 0x48
200017c0:	e7f7      	b.n	200017b2 <HAL_DMA_RegisterCallback+0x2a>
200017c2:	64e2      	str	r2, [r4, #76]	; 0x4c
200017c4:	e7f5      	b.n	200017b2 <HAL_DMA_RegisterCallback+0x2a>
200017c6:	6522      	str	r2, [r4, #80]	; 0x50
200017c8:	e7f3      	b.n	200017b2 <HAL_DMA_RegisterCallback+0x2a>
200017ca:	4618      	mov	r0, r3
200017cc:	2300      	movs	r3, #0
200017ce:	f884 3034 	strb.w	r3, [r4, #52]	; 0x34
200017d2:	bd10      	pop	{r4, pc}
200017d4:	2002      	movs	r0, #2
200017d6:	e7fc      	b.n	200017d2 <HAL_DMA_RegisterCallback+0x4a>

200017d8 <HAL_DMA_UnRegisterCallback>:
200017d8:	f890 2034 	ldrb.w	r2, [r0, #52]	; 0x34
200017dc:	2a01      	cmp	r2, #1
200017de:	4603      	mov	r3, r0
200017e0:	d026      	beq.n	20001830 <HAL_DMA_UnRegisterCallback+0x58>
200017e2:	f893 2035 	ldrb.w	r2, [r3, #53]	; 0x35
200017e6:	2001      	movs	r0, #1
200017e8:	4282      	cmp	r2, r0
200017ea:	f883 0034 	strb.w	r0, [r3, #52]	; 0x34
200017ee:	d10a      	bne.n	20001806 <HAL_DMA_UnRegisterCallback+0x2e>
200017f0:	2200      	movs	r2, #0
200017f2:	2906      	cmp	r1, #6
200017f4:	d81a      	bhi.n	2000182c <HAL_DMA_UnRegisterCallback+0x54>
200017f6:	e8df f001 	tbb	[pc, r1]
200017fa:	0a04      	.short	0x0a04
200017fc:	17100e0c 	.word	0x17100e0c
20001800:	12          	.byte	0x12
20001801:	00          	.byte	0x00
20001802:	63da      	str	r2, [r3, #60]	; 0x3c
20001804:	2000      	movs	r0, #0
20001806:	2200      	movs	r2, #0
20001808:	f883 2034 	strb.w	r2, [r3, #52]	; 0x34
2000180c:	4770      	bx	lr
2000180e:	641a      	str	r2, [r3, #64]	; 0x40
20001810:	e7f8      	b.n	20001804 <HAL_DMA_UnRegisterCallback+0x2c>
20001812:	645a      	str	r2, [r3, #68]	; 0x44
20001814:	e7f6      	b.n	20001804 <HAL_DMA_UnRegisterCallback+0x2c>
20001816:	649a      	str	r2, [r3, #72]	; 0x48
20001818:	e7f4      	b.n	20001804 <HAL_DMA_UnRegisterCallback+0x2c>
2000181a:	64da      	str	r2, [r3, #76]	; 0x4c
2000181c:	e7f2      	b.n	20001804 <HAL_DMA_UnRegisterCallback+0x2c>
2000181e:	e9c3 220f 	strd	r2, r2, [r3, #60]	; 0x3c
20001822:	e9c3 2211 	strd	r2, r2, [r3, #68]	; 0x44
20001826:	64da      	str	r2, [r3, #76]	; 0x4c
20001828:	651a      	str	r2, [r3, #80]	; 0x50
2000182a:	e7eb      	b.n	20001804 <HAL_DMA_UnRegisterCallback+0x2c>
2000182c:	2001      	movs	r0, #1
2000182e:	e7ea      	b.n	20001806 <HAL_DMA_UnRegisterCallback+0x2e>
20001830:	2002      	movs	r0, #2
20001832:	4770      	bx	lr

20001834 <HAL_DMA_GetState>:
20001834:	f890 0035 	ldrb.w	r0, [r0, #53]	; 0x35
20001838:	4770      	bx	lr

2000183a <HAL_DMA_GetError>:
2000183a:	6d40      	ldr	r0, [r0, #84]	; 0x54
2000183c:	4770      	bx	lr
	...

20001840 <HAL_GPIO_Init>:
20001840:	e92d 4ff0 	stmdb	sp!, {r4, r5, r6, r7, r8, r9, sl, fp, lr}
20001844:	b085      	sub	sp, #20
20001846:	680b      	ldr	r3, [r1, #0]
20001848:	f8df 81a0 	ldr.w	r8, [pc, #416]	; 200019ec <HAL_GPIO_Init+0x1ac>
2000184c:	4a65      	ldr	r2, [pc, #404]	; (200019e4 <HAL_GPIO_Init+0x1a4>)
2000184e:	f8df 91a0 	ldr.w	r9, [pc, #416]	; 200019f0 <HAL_GPIO_Init+0x1b0>
20001852:	9301      	str	r3, [sp, #4]
20001854:	2300      	movs	r3, #0
20001856:	2401      	movs	r4, #1
20001858:	9d01      	ldr	r5, [sp, #4]
2000185a:	409c      	lsls	r4, r3
2000185c:	4025      	ands	r5, r4
2000185e:	42ac      	cmp	r4, r5
20001860:	f040 80ac 	bne.w	200019bc <HAL_GPIO_Init+0x17c>
20001864:	684c      	ldr	r4, [r1, #4]
20001866:	f024 0c10 	bic.w	ip, r4, #16
2000186a:	ea4f 0e43 	mov.w	lr, r3, lsl #1
2000186e:	2603      	movs	r6, #3
20001870:	f10c 37ff 	add.w	r7, ip, #4294967295
20001874:	fa06 f60e 	lsl.w	r6, r6, lr
20001878:	2f01      	cmp	r7, #1
2000187a:	ea6f 0606 	mvn.w	r6, r6
2000187e:	d811      	bhi.n	200018a4 <HAL_GPIO_Init+0x64>
20001880:	6887      	ldr	r7, [r0, #8]
20001882:	ea07 0a06 	and.w	sl, r7, r6
20001886:	68cf      	ldr	r7, [r1, #12]
20001888:	fa07 f70e 	lsl.w	r7, r7, lr
2000188c:	ea47 070a 	orr.w	r7, r7, sl
20001890:	6087      	str	r7, [r0, #8]
20001892:	6847      	ldr	r7, [r0, #4]
20001894:	ea27 0a05 	bic.w	sl, r7, r5
20001898:	f3c4 1700 	ubfx	r7, r4, #4, #1
2000189c:	409f      	lsls	r7, r3
2000189e:	ea47 070a 	orr.w	r7, r7, sl
200018a2:	6047      	str	r7, [r0, #4]
200018a4:	68c7      	ldr	r7, [r0, #12]
200018a6:	ea07 0a06 	and.w	sl, r7, r6
200018aa:	688f      	ldr	r7, [r1, #8]
200018ac:	fa07 f70e 	lsl.w	r7, r7, lr
200018b0:	ea47 070a 	orr.w	r7, r7, sl
200018b4:	f1bc 0f02 	cmp.w	ip, #2
200018b8:	60c7      	str	r7, [r0, #12]
200018ba:	d116      	bne.n	200018ea <HAL_GPIO_Init+0xaa>
200018bc:	ea4f 0ad3 	mov.w	sl, r3, lsr #3
200018c0:	eb00 0a8a 	add.w	sl, r0, sl, lsl #2
200018c4:	f003 0b07 	and.w	fp, r3, #7
200018c8:	f8da 7020 	ldr.w	r7, [sl, #32]
200018cc:	ea4f 0b8b 	mov.w	fp, fp, lsl #2
200018d0:	f04f 0c0f 	mov.w	ip, #15
200018d4:	fa0c fc0b 	lsl.w	ip, ip, fp
200018d8:	ea27 0c0c 	bic.w	ip, r7, ip
200018dc:	690f      	ldr	r7, [r1, #16]
200018de:	fa07 f70b 	lsl.w	r7, r7, fp
200018e2:	ea47 070c 	orr.w	r7, r7, ip
200018e6:	f8ca 7020 	str.w	r7, [sl, #32]
200018ea:	6807      	ldr	r7, [r0, #0]
200018ec:	403e      	ands	r6, r7
200018ee:	f004 0703 	and.w	r7, r4, #3
200018f2:	fa07 fe0e 	lsl.w	lr, r7, lr
200018f6:	ea4e 0606 	orr.w	r6, lr, r6
200018fa:	6006      	str	r6, [r0, #0]
200018fc:	00e6      	lsls	r6, r4, #3
200018fe:	d55d      	bpl.n	200019bc <HAL_GPIO_Init+0x17c>
20001900:	f04f 0b00 	mov.w	fp, #0
20001904:	f8cd b00c 	str.w	fp, [sp, #12]
20001908:	f8d8 7044 	ldr.w	r7, [r8, #68]	; 0x44
2000190c:	4e36      	ldr	r6, [pc, #216]	; (200019e8 <HAL_GPIO_Init+0x1a8>)
2000190e:	f447 4780 	orr.w	r7, r7, #16384	; 0x4000
20001912:	f8c8 7044 	str.w	r7, [r8, #68]	; 0x44
20001916:	f8d8 7044 	ldr.w	r7, [r8, #68]	; 0x44
2000191a:	f407 4780 	and.w	r7, r7, #16384	; 0x4000
2000191e:	9703      	str	r7, [sp, #12]
20001920:	9f03      	ldr	r7, [sp, #12]
20001922:	f023 0703 	bic.w	r7, r3, #3
20001926:	f107 4780 	add.w	r7, r7, #1073741824	; 0x40000000
2000192a:	f507 379c 	add.w	r7, r7, #79872	; 0x13800
2000192e:	f003 0e03 	and.w	lr, r3, #3
20001932:	f8d7 a008 	ldr.w	sl, [r7, #8]
20001936:	ea4f 0e8e 	mov.w	lr, lr, lsl #2
2000193a:	f04f 0c0f 	mov.w	ip, #15
2000193e:	fa0c fc0e 	lsl.w	ip, ip, lr
20001942:	42b0      	cmp	r0, r6
20001944:	ea2a 0c0c 	bic.w	ip, sl, ip
20001948:	d03f      	beq.n	200019ca <HAL_GPIO_Init+0x18a>
2000194a:	f506 6680 	add.w	r6, r6, #1024	; 0x400
2000194e:	42b0      	cmp	r0, r6
20001950:	d03d      	beq.n	200019ce <HAL_GPIO_Init+0x18e>
20001952:	f506 6680 	add.w	r6, r6, #1024	; 0x400
20001956:	42b0      	cmp	r0, r6
20001958:	d03b      	beq.n	200019d2 <HAL_GPIO_Init+0x192>
2000195a:	f506 6680 	add.w	r6, r6, #1024	; 0x400
2000195e:	42b0      	cmp	r0, r6
20001960:	d039      	beq.n	200019d6 <HAL_GPIO_Init+0x196>
20001962:	f506 6680 	add.w	r6, r6, #1024	; 0x400
20001966:	42b0      	cmp	r0, r6
20001968:	d037      	beq.n	200019da <HAL_GPIO_Init+0x19a>
2000196a:	4548      	cmp	r0, r9
2000196c:	d037      	beq.n	200019de <HAL_GPIO_Init+0x19e>
2000196e:	f506 6600 	add.w	r6, r6, #2048	; 0x800
20001972:	42b0      	cmp	r0, r6
20001974:	bf14      	ite	ne
20001976:	2607      	movne	r6, #7
20001978:	2606      	moveq	r6, #6
2000197a:	fa06 f60e 	lsl.w	r6, r6, lr
2000197e:	ea46 060c 	orr.w	r6, r6, ip
20001982:	60be      	str	r6, [r7, #8]
20001984:	6816      	ldr	r6, [r2, #0]
20001986:	43ef      	mvns	r7, r5
20001988:	f414 3f80 	tst.w	r4, #65536	; 0x10000
2000198c:	bf0c      	ite	eq
2000198e:	403e      	andeq	r6, r7
20001990:	432e      	orrne	r6, r5
20001992:	6016      	str	r6, [r2, #0]
20001994:	6856      	ldr	r6, [r2, #4]
20001996:	f414 3f00 	tst.w	r4, #131072	; 0x20000
2000199a:	bf0c      	ite	eq
2000199c:	403e      	andeq	r6, r7
2000199e:	432e      	orrne	r6, r5
200019a0:	6056      	str	r6, [r2, #4]
200019a2:	6896      	ldr	r6, [r2, #8]
200019a4:	f414 1f80 	tst.w	r4, #1048576	; 0x100000
200019a8:	bf0c      	ite	eq
200019aa:	403e      	andeq	r6, r7
200019ac:	432e      	orrne	r6, r5
200019ae:	6096      	str	r6, [r2, #8]
200019b0:	68d6      	ldr	r6, [r2, #12]
200019b2:	02a4      	lsls	r4, r4, #10
200019b4:	bf54      	ite	pl
200019b6:	403e      	andpl	r6, r7
200019b8:	432e      	orrmi	r6, r5
200019ba:	60d6      	str	r6, [r2, #12]
200019bc:	3301      	adds	r3, #1
200019be:	2b10      	cmp	r3, #16
200019c0:	f47f af49 	bne.w	20001856 <HAL_GPIO_Init+0x16>
200019c4:	b005      	add	sp, #20
200019c6:	e8bd 8ff0 	ldmia.w	sp!, {r4, r5, r6, r7, r8, r9, sl, fp, pc}
200019ca:	465e      	mov	r6, fp
200019cc:	e7d5      	b.n	2000197a <HAL_GPIO_Init+0x13a>
200019ce:	2601      	movs	r6, #1
200019d0:	e7d3      	b.n	2000197a <HAL_GPIO_Init+0x13a>
200019d2:	2602      	movs	r6, #2
200019d4:	e7d1      	b.n	2000197a <HAL_GPIO_Init+0x13a>
200019d6:	2603      	movs	r6, #3
200019d8:	e7cf      	b.n	2000197a <HAL_GPIO_Init+0x13a>
200019da:	2604      	movs	r6, #4
200019dc:	e7cd      	b.n	2000197a <HAL_GPIO_Init+0x13a>
200019de:	2605      	movs	r6, #5
200019e0:	e7cb      	b.n	2000197a <HAL_GPIO_Init+0x13a>
200019e2:	bf00      	nop
200019e4:	40013c00 	.word	0x40013c00
200019e8:	40020000 	.word	0x40020000
200019ec:	40023800 	.word	0x40023800
200019f0:	40021400 	.word	0x40021400

200019f4 <HAL_GPIO_DeInit>:
200019f4:	e92d 4ff0 	stmdb	sp!, {r4, r5, r6, r7, r8, r9, sl, fp, lr}
200019f8:	4d3d      	ldr	r5, [pc, #244]	; (20001af0 <HAL_GPIO_DeInit+0xfc>)
200019fa:	f8df a0fc 	ldr.w	sl, [pc, #252]	; 20001af8 <HAL_GPIO_DeInit+0x104>
200019fe:	f8df b0fc 	ldr.w	fp, [pc, #252]	; 20001afc <HAL_GPIO_DeInit+0x108>
20001a02:	2300      	movs	r3, #0
20001a04:	f04f 0901 	mov.w	r9, #1
20001a08:	fa09 fe03 	lsl.w	lr, r9, r3
20001a0c:	ea0e 0201 	and.w	r2, lr, r1
20001a10:	4596      	cmp	lr, r2
20001a12:	d15c      	bne.n	20001ace <HAL_GPIO_DeInit+0xda>
20001a14:	f023 0603 	bic.w	r6, r3, #3
20001a18:	f106 4680 	add.w	r6, r6, #1073741824	; 0x40000000
20001a1c:	f506 369c 	add.w	r6, r6, #79872	; 0x13800
20001a20:	f003 0c03 	and.w	ip, r3, #3
20001a24:	68b4      	ldr	r4, [r6, #8]
20001a26:	ea4f 0c8c 	mov.w	ip, ip, lsl #2
20001a2a:	270f      	movs	r7, #15
20001a2c:	fa07 f70c 	lsl.w	r7, r7, ip
20001a30:	ea07 0804 	and.w	r8, r7, r4
20001a34:	4c2f      	ldr	r4, [pc, #188]	; (20001af4 <HAL_GPIO_DeInit+0x100>)
20001a36:	42a0      	cmp	r0, r4
20001a38:	d04e      	beq.n	20001ad8 <HAL_GPIO_DeInit+0xe4>
20001a3a:	f504 6480 	add.w	r4, r4, #1024	; 0x400
20001a3e:	42a0      	cmp	r0, r4
20001a40:	d04c      	beq.n	20001adc <HAL_GPIO_DeInit+0xe8>
20001a42:	f504 6480 	add.w	r4, r4, #1024	; 0x400
20001a46:	42a0      	cmp	r0, r4
20001a48:	d04a      	beq.n	20001ae0 <HAL_GPIO_DeInit+0xec>
20001a4a:	f504 6480 	add.w	r4, r4, #1024	; 0x400
20001a4e:	42a0      	cmp	r0, r4
20001a50:	d048      	beq.n	20001ae4 <HAL_GPIO_DeInit+0xf0>
20001a52:	f504 6480 	add.w	r4, r4, #1024	; 0x400
20001a56:	42a0      	cmp	r0, r4
20001a58:	d046      	beq.n	20001ae8 <HAL_GPIO_DeInit+0xf4>
20001a5a:	4550      	cmp	r0, sl
20001a5c:	d046      	beq.n	20001aec <HAL_GPIO_DeInit+0xf8>
20001a5e:	4558      	cmp	r0, fp
20001a60:	bf0c      	ite	eq
20001a62:	2406      	moveq	r4, #6
20001a64:	2407      	movne	r4, #7
20001a66:	fa04 f40c 	lsl.w	r4, r4, ip
20001a6a:	4544      	cmp	r4, r8
20001a6c:	d110      	bne.n	20001a90 <HAL_GPIO_DeInit+0x9c>
20001a6e:	682c      	ldr	r4, [r5, #0]
20001a70:	43d2      	mvns	r2, r2
20001a72:	4014      	ands	r4, r2
20001a74:	602c      	str	r4, [r5, #0]
20001a76:	686c      	ldr	r4, [r5, #4]
20001a78:	4014      	ands	r4, r2
20001a7a:	606c      	str	r4, [r5, #4]
20001a7c:	68ac      	ldr	r4, [r5, #8]
20001a7e:	4014      	ands	r4, r2
20001a80:	60ac      	str	r4, [r5, #8]
20001a82:	68ec      	ldr	r4, [r5, #12]
20001a84:	4022      	ands	r2, r4
20001a86:	60ea      	str	r2, [r5, #12]
20001a88:	68b2      	ldr	r2, [r6, #8]
20001a8a:	ea22 0707 	bic.w	r7, r2, r7
20001a8e:	60b7      	str	r7, [r6, #8]
20001a90:	005e      	lsls	r6, r3, #1
20001a92:	2203      	movs	r2, #3
20001a94:	6804      	ldr	r4, [r0, #0]
20001a96:	40b2      	lsls	r2, r6
20001a98:	43d2      	mvns	r2, r2
20001a9a:	4014      	ands	r4, r2
20001a9c:	6004      	str	r4, [r0, #0]
20001a9e:	08dc      	lsrs	r4, r3, #3
20001aa0:	eb00 0484 	add.w	r4, r0, r4, lsl #2
20001aa4:	f003 0c07 	and.w	ip, r3, #7
20001aa8:	6a26      	ldr	r6, [r4, #32]
20001aaa:	ea4f 0c8c 	mov.w	ip, ip, lsl #2
20001aae:	270f      	movs	r7, #15
20001ab0:	fa07 f70c 	lsl.w	r7, r7, ip
20001ab4:	ea26 0707 	bic.w	r7, r6, r7
20001ab8:	6227      	str	r7, [r4, #32]
20001aba:	68c4      	ldr	r4, [r0, #12]
20001abc:	4014      	ands	r4, r2
20001abe:	60c4      	str	r4, [r0, #12]
20001ac0:	6844      	ldr	r4, [r0, #4]
20001ac2:	ea24 040e 	bic.w	r4, r4, lr
20001ac6:	6044      	str	r4, [r0, #4]
20001ac8:	6884      	ldr	r4, [r0, #8]
20001aca:	4022      	ands	r2, r4
20001acc:	6082      	str	r2, [r0, #8]
20001ace:	3301      	adds	r3, #1
20001ad0:	2b10      	cmp	r3, #16
20001ad2:	d199      	bne.n	20001a08 <HAL_GPIO_DeInit+0x14>
20001ad4:	e8bd 8ff0 	ldmia.w	sp!, {r4, r5, r6, r7, r8, r9, sl, fp, pc}
20001ad8:	2400      	movs	r4, #0
20001ada:	e7c4      	b.n	20001a66 <HAL_GPIO_DeInit+0x72>
20001adc:	2401      	movs	r4, #1
20001ade:	e7c2      	b.n	20001a66 <HAL_GPIO_DeInit+0x72>
20001ae0:	2402      	movs	r4, #2
20001ae2:	e7c0      	b.n	20001a66 <HAL_GPIO_DeInit+0x72>
20001ae4:	2403      	movs	r4, #3
20001ae6:	e7be      	b.n	20001a66 <HAL_GPIO_DeInit+0x72>
20001ae8:	2404      	movs	r4, #4
20001aea:	e7bc      	b.n	20001a66 <HAL_GPIO_DeInit+0x72>
20001aec:	2405      	movs	r4, #5
20001aee:	e7ba      	b.n	20001a66 <HAL_GPIO_DeInit+0x72>
20001af0:	40013c00 	.word	0x40013c00
20001af4:	40020000 	.word	0x40020000
20001af8:	40021400 	.word	0x40021400
20001afc:	40021800 	.word	0x40021800

20001b00 <HAL_GPIO_ReadPin>:
20001b00:	6903      	ldr	r3, [r0, #16]
20001b02:	4219      	tst	r1, r3
20001b04:	bf14      	ite	ne
20001b06:	2001      	movne	r0, #1
20001b08:	2000      	moveq	r0, #0
20001b0a:	4770      	bx	lr

20001b0c <HAL_GPIO_WritePin>:
20001b0c:	b10a      	cbz	r2, 20001b12 <HAL_GPIO_WritePin+0x6>
20001b0e:	6181      	str	r1, [r0, #24]
20001b10:	4770      	bx	lr
20001b12:	0409      	lsls	r1, r1, #16
20001b14:	e7fb      	b.n	20001b0e <HAL_GPIO_WritePin+0x2>

20001b16 <HAL_GPIO_TogglePin>:
20001b16:	6943      	ldr	r3, [r0, #20]
20001b18:	ea31 0303 	bics.w	r3, r1, r3
20001b1c:	bf08      	it	eq
20001b1e:	0409      	lsleq	r1, r1, #16
20001b20:	6181      	str	r1, [r0, #24]
20001b22:	4770      	bx	lr

20001b24 <HAL_GPIO_LockPin>:
20001b24:	b082      	sub	sp, #8
20001b26:	f44f 3380 	mov.w	r3, #65536	; 0x10000
20001b2a:	9301      	str	r3, [sp, #4]
20001b2c:	9b01      	ldr	r3, [sp, #4]
20001b2e:	430b      	orrs	r3, r1
20001b30:	9301      	str	r3, [sp, #4]
20001b32:	9b01      	ldr	r3, [sp, #4]
20001b34:	61c3      	str	r3, [r0, #28]
20001b36:	61c1      	str	r1, [r0, #28]
20001b38:	9b01      	ldr	r3, [sp, #4]
20001b3a:	61c3      	str	r3, [r0, #28]
20001b3c:	69c3      	ldr	r3, [r0, #28]
20001b3e:	9301      	str	r3, [sp, #4]
20001b40:	69c0      	ldr	r0, [r0, #28]
20001b42:	f480 3080 	eor.w	r0, r0, #65536	; 0x10000
20001b46:	f3c0 4000 	ubfx	r0, r0, #16, #1
20001b4a:	b002      	add	sp, #8
20001b4c:	4770      	bx	lr

20001b4e <HAL_GPIO_EXTI_Callback>:
20001b4e:	4770      	bx	lr

20001b50 <HAL_GPIO_EXTI_IRQHandler>:
20001b50:	b508      	push	{r3, lr}
20001b52:	4b04      	ldr	r3, [pc, #16]	; (20001b64 <HAL_GPIO_EXTI_IRQHandler+0x14>)
20001b54:	6959      	ldr	r1, [r3, #20]
20001b56:	4201      	tst	r1, r0
20001b58:	d002      	beq.n	20001b60 <HAL_GPIO_EXTI_IRQHandler+0x10>
20001b5a:	6158      	str	r0, [r3, #20]
20001b5c:	f7ff fff7 	bl	20001b4e <HAL_GPIO_EXTI_Callback>
20001b60:	bd08      	pop	{r3, pc}
20001b62:	bf00      	nop
20001b64:	40013c00 	.word	0x40013c00

20001b68 <HAL_PWR_DeInit>:
20001b68:	4b04      	ldr	r3, [pc, #16]	; (20001b7c <HAL_PWR_DeInit+0x14>)
20001b6a:	6a1a      	ldr	r2, [r3, #32]
20001b6c:	f042 5280 	orr.w	r2, r2, #268435456	; 0x10000000
20001b70:	621a      	str	r2, [r3, #32]
20001b72:	6a1a      	ldr	r2, [r3, #32]
20001b74:	f022 5280 	bic.w	r2, r2, #268435456	; 0x10000000
20001b78:	621a      	str	r2, [r3, #32]
20001b7a:	4770      	bx	lr
20001b7c:	40023800 	.word	0x40023800

20001b80 <HAL_PWR_EnableBkUpAccess>:
20001b80:	4b01      	ldr	r3, [pc, #4]	; (20001b88 <HAL_PWR_EnableBkUpAccess+0x8>)
20001b82:	2201      	movs	r2, #1
20001b84:	601a      	str	r2, [r3, #0]
20001b86:	4770      	bx	lr
20001b88:	420e0020 	.word	0x420e0020

20001b8c <HAL_PWR_DisableBkUpAccess>:
20001b8c:	4b01      	ldr	r3, [pc, #4]	; (20001b94 <HAL_PWR_DisableBkUpAccess+0x8>)
20001b8e:	2200      	movs	r2, #0
20001b90:	601a      	str	r2, [r3, #0]
20001b92:	4770      	bx	lr
20001b94:	420e0020 	.word	0x420e0020

20001b98 <HAL_PWR_ConfigPVD>:
20001b98:	4a19      	ldr	r2, [pc, #100]	; (20001c00 <HAL_PWR_ConfigPVD+0x68>)
20001b9a:	6801      	ldr	r1, [r0, #0]
20001b9c:	6813      	ldr	r3, [r2, #0]
20001b9e:	f023 03e0 	bic.w	r3, r3, #224	; 0xe0
20001ba2:	430b      	orrs	r3, r1
20001ba4:	6013      	str	r3, [r2, #0]
20001ba6:	4b17      	ldr	r3, [pc, #92]	; (20001c04 <HAL_PWR_ConfigPVD+0x6c>)
20001ba8:	685a      	ldr	r2, [r3, #4]
20001baa:	f422 3280 	bic.w	r2, r2, #65536	; 0x10000
20001bae:	605a      	str	r2, [r3, #4]
20001bb0:	681a      	ldr	r2, [r3, #0]
20001bb2:	f422 3280 	bic.w	r2, r2, #65536	; 0x10000
20001bb6:	601a      	str	r2, [r3, #0]
20001bb8:	689a      	ldr	r2, [r3, #8]
20001bba:	f422 3280 	bic.w	r2, r2, #65536	; 0x10000
20001bbe:	609a      	str	r2, [r3, #8]
20001bc0:	68da      	ldr	r2, [r3, #12]
20001bc2:	f422 3280 	bic.w	r2, r2, #65536	; 0x10000
20001bc6:	60da      	str	r2, [r3, #12]
20001bc8:	6842      	ldr	r2, [r0, #4]
20001bca:	03d1      	lsls	r1, r2, #15
20001bcc:	bf42      	ittt	mi
20001bce:	6819      	ldrmi	r1, [r3, #0]
20001bd0:	f441 3180 	orrmi.w	r1, r1, #65536	; 0x10000
20001bd4:	6019      	strmi	r1, [r3, #0]
20001bd6:	0390      	lsls	r0, r2, #14
20001bd8:	bf42      	ittt	mi
20001bda:	6859      	ldrmi	r1, [r3, #4]
20001bdc:	f441 3180 	orrmi.w	r1, r1, #65536	; 0x10000
20001be0:	6059      	strmi	r1, [r3, #4]
20001be2:	07d1      	lsls	r1, r2, #31
20001be4:	bf41      	itttt	mi
20001be6:	4907      	ldrmi	r1, [pc, #28]	; (20001c04 <HAL_PWR_ConfigPVD+0x6c>)
20001be8:	688b      	ldrmi	r3, [r1, #8]
20001bea:	f443 3380 	orrmi.w	r3, r3, #65536	; 0x10000
20001bee:	608b      	strmi	r3, [r1, #8]
20001bf0:	0793      	lsls	r3, r2, #30
20001bf2:	bf41      	itttt	mi
20001bf4:	4a03      	ldrmi	r2, [pc, #12]	; (20001c04 <HAL_PWR_ConfigPVD+0x6c>)
20001bf6:	68d3      	ldrmi	r3, [r2, #12]
20001bf8:	f443 3380 	orrmi.w	r3, r3, #65536	; 0x10000
20001bfc:	60d3      	strmi	r3, [r2, #12]
20001bfe:	4770      	bx	lr
20001c00:	40007000 	.word	0x40007000
20001c04:	40013c00 	.word	0x40013c00

20001c08 <HAL_PWR_EnablePVD>:
20001c08:	4b01      	ldr	r3, [pc, #4]	; (20001c10 <HAL_PWR_EnablePVD+0x8>)
20001c0a:	2201      	movs	r2, #1
20001c0c:	601a      	str	r2, [r3, #0]
20001c0e:	4770      	bx	lr
20001c10:	420e0010 	.word	0x420e0010

20001c14 <HAL_PWR_DisablePVD>:
20001c14:	4b01      	ldr	r3, [pc, #4]	; (20001c1c <HAL_PWR_DisablePVD+0x8>)
20001c16:	2200      	movs	r2, #0
20001c18:	601a      	str	r2, [r3, #0]
20001c1a:	4770      	bx	lr
20001c1c:	420e0010 	.word	0x420e0010

20001c20 <HAL_PWR_EnableWakeUpPin>:
20001c20:	4a02      	ldr	r2, [pc, #8]	; (20001c2c <HAL_PWR_EnableWakeUpPin+0xc>)
20001c22:	6853      	ldr	r3, [r2, #4]
20001c24:	4318      	orrs	r0, r3
20001c26:	6050      	str	r0, [r2, #4]
20001c28:	4770      	bx	lr
20001c2a:	bf00      	nop
20001c2c:	40007000 	.word	0x40007000

20001c30 <HAL_PWR_DisableWakeUpPin>:
20001c30:	4a02      	ldr	r2, [pc, #8]	; (20001c3c <HAL_PWR_DisableWakeUpPin+0xc>)
20001c32:	6853      	ldr	r3, [r2, #4]
20001c34:	ea23 0000 	bic.w	r0, r3, r0
20001c38:	6050      	str	r0, [r2, #4]
20001c3a:	4770      	bx	lr
20001c3c:	40007000 	.word	0x40007000

20001c40 <HAL_PWR_EnterSLEEPMode>:
20001c40:	4a06      	ldr	r2, [pc, #24]	; (20001c5c <HAL_PWR_EnterSLEEPMode+0x1c>)
20001c42:	6913      	ldr	r3, [r2, #16]
20001c44:	2901      	cmp	r1, #1
20001c46:	f023 0304 	bic.w	r3, r3, #4
20001c4a:	6113      	str	r3, [r2, #16]
20001c4c:	d101      	bne.n	20001c52 <HAL_PWR_EnterSLEEPMode+0x12>
20001c4e:	bf30      	wfi
20001c50:	4770      	bx	lr
20001c52:	bf40      	sev
20001c54:	bf20      	wfe
20001c56:	bf20      	wfe
20001c58:	4770      	bx	lr
20001c5a:	bf00      	nop
20001c5c:	e000ed00 	.word	0xe000ed00

20001c60 <HAL_PWR_EnterSTOPMode>:
20001c60:	4a0b      	ldr	r2, [pc, #44]	; (20001c90 <HAL_PWR_EnterSTOPMode+0x30>)
20001c62:	6813      	ldr	r3, [r2, #0]
20001c64:	f023 0303 	bic.w	r3, r3, #3
20001c68:	4318      	orrs	r0, r3
20001c6a:	4b0a      	ldr	r3, [pc, #40]	; (20001c94 <HAL_PWR_EnterSTOPMode+0x34>)
20001c6c:	6010      	str	r0, [r2, #0]
20001c6e:	691a      	ldr	r2, [r3, #16]
20001c70:	2901      	cmp	r1, #1
20001c72:	f042 0204 	orr.w	r2, r2, #4
20001c76:	611a      	str	r2, [r3, #16]
20001c78:	d105      	bne.n	20001c86 <HAL_PWR_EnterSTOPMode+0x26>
20001c7a:	bf30      	wfi
20001c7c:	691a      	ldr	r2, [r3, #16]
20001c7e:	f022 0204 	bic.w	r2, r2, #4
20001c82:	611a      	str	r2, [r3, #16]
20001c84:	4770      	bx	lr
20001c86:	bf40      	sev
20001c88:	bf20      	wfe
20001c8a:	bf20      	wfe
20001c8c:	e7f6      	b.n	20001c7c <HAL_PWR_EnterSTOPMode+0x1c>
20001c8e:	bf00      	nop
20001c90:	40007000 	.word	0x40007000
20001c94:	e000ed00 	.word	0xe000ed00

20001c98 <HAL_PWR_EnterSTANDBYMode>:
20001c98:	4a05      	ldr	r2, [pc, #20]	; (20001cb0 <HAL_PWR_EnterSTANDBYMode+0x18>)
20001c9a:	6813      	ldr	r3, [r2, #0]
20001c9c:	f043 0302 	orr.w	r3, r3, #2
20001ca0:	6013      	str	r3, [r2, #0]
20001ca2:	4a04      	ldr	r2, [pc, #16]	; (20001cb4 <HAL_PWR_EnterSTANDBYMode+0x1c>)
20001ca4:	6913      	ldr	r3, [r2, #16]
20001ca6:	f043 0304 	orr.w	r3, r3, #4
20001caa:	6113      	str	r3, [r2, #16]
20001cac:	bf30      	wfi
20001cae:	4770      	bx	lr
20001cb0:	40007000 	.word	0x40007000
20001cb4:	e000ed00 	.word	0xe000ed00

20001cb8 <HAL_PWR_PVDCallback>:
20001cb8:	4770      	bx	lr
	...

20001cbc <HAL_PWR_PVD_IRQHandler>:
20001cbc:	b510      	push	{r4, lr}
20001cbe:	4c05      	ldr	r4, [pc, #20]	; (20001cd4 <HAL_PWR_PVD_IRQHandler+0x18>)
20001cc0:	6963      	ldr	r3, [r4, #20]
20001cc2:	03db      	lsls	r3, r3, #15
20001cc4:	d504      	bpl.n	20001cd0 <HAL_PWR_PVD_IRQHandler+0x14>
20001cc6:	f7ff fff7 	bl	20001cb8 <HAL_PWR_PVDCallback>
20001cca:	f44f 3380 	mov.w	r3, #65536	; 0x10000
20001cce:	6163      	str	r3, [r4, #20]
20001cd0:	bd10      	pop	{r4, pc}
20001cd2:	bf00      	nop
20001cd4:	40013c00 	.word	0x40013c00

20001cd8 <HAL_PWR_EnableSleepOnExit>:
20001cd8:	4a02      	ldr	r2, [pc, #8]	; (20001ce4 <HAL_PWR_EnableSleepOnExit+0xc>)
20001cda:	6913      	ldr	r3, [r2, #16]
20001cdc:	f043 0302 	orr.w	r3, r3, #2
20001ce0:	6113      	str	r3, [r2, #16]
20001ce2:	4770      	bx	lr
20001ce4:	e000ed00 	.word	0xe000ed00

20001ce8 <HAL_PWR_DisableSleepOnExit>:
20001ce8:	4a02      	ldr	r2, [pc, #8]	; (20001cf4 <HAL_PWR_DisableSleepOnExit+0xc>)
20001cea:	6913      	ldr	r3, [r2, #16]
20001cec:	f023 0302 	bic.w	r3, r3, #2
20001cf0:	6113      	str	r3, [r2, #16]
20001cf2:	4770      	bx	lr
20001cf4:	e000ed00 	.word	0xe000ed00

20001cf8 <HAL_PWR_EnableSEVOnPend>:
20001cf8:	4a02      	ldr	r2, [pc, #8]	; (20001d04 <HAL_PWR_EnableSEVOnPend+0xc>)
20001cfa:	6913      	ldr	r3, [r2, #16]
20001cfc:	f043 0310 	orr.w	r3, r3, #16
20001d00:	6113      	str	r3, [r2, #16]
20001d02:	4770      	bx	lr
20001d04:	e000ed00 	.word	0xe000ed00

20001d08 <HAL_PWR_DisableSEVOnPend>:
20001d08:	4a02      	ldr	r2, [pc, #8]	; (20001d14 <HAL_PWR_DisableSEVOnPend+0xc>)
20001d0a:	6913      	ldr	r3, [r2, #16]
20001d0c:	f023 0310 	bic.w	r3, r3, #16
20001d10:	6113      	str	r3, [r2, #16]
20001d12:	4770      	bx	lr
20001d14:	e000ed00 	.word	0xe000ed00

20001d18 <QSPI_DMARxCplt>:
20001d18:	6b83      	ldr	r3, [r0, #56]	; 0x38
20001d1a:	2200      	movs	r2, #0
20001d1c:	639a      	str	r2, [r3, #56]	; 0x38
20001d1e:	681a      	ldr	r2, [r3, #0]
20001d20:	6813      	ldr	r3, [r2, #0]
20001d22:	f443 3300 	orr.w	r3, r3, #131072	; 0x20000
20001d26:	6013      	str	r3, [r2, #0]
20001d28:	4770      	bx	lr

20001d2a <QSPI_DMATxCplt>:
20001d2a:	6b83      	ldr	r3, [r0, #56]	; 0x38
20001d2c:	2200      	movs	r2, #0
20001d2e:	62da      	str	r2, [r3, #44]	; 0x2c
20001d30:	681a      	ldr	r2, [r3, #0]
20001d32:	6813      	ldr	r3, [r2, #0]
20001d34:	f443 3300 	orr.w	r3, r3, #131072	; 0x20000
20001d38:	6013      	str	r3, [r2, #0]
20001d3a:	4770      	bx	lr

20001d3c <QSPI_Config>:
20001d3c:	e92d 47f0 	stmdb	sp!, {r4, r5, r6, r7, r8, r9, sl, lr}
20001d40:	6a4e      	ldr	r6, [r1, #36]	; 0x24
20001d42:	b13e      	cbz	r6, 20001d54 <QSPI_Config+0x18>
20001d44:	f1b2 6f40 	cmp.w	r2, #201326592	; 0xc000000
20001d48:	bf1f      	itttt	ne
20001d4a:	6a8b      	ldrne	r3, [r1, #40]	; 0x28
20001d4c:	6804      	ldrne	r4, [r0, #0]
20001d4e:	f103 33ff 	addne.w	r3, r3, #4294967295
20001d52:	6123      	strne	r3, [r4, #16]
20001d54:	f8d1 a018 	ldr.w	sl, [r1, #24]
20001d58:	e9d1 7c07 	ldrd	r7, ip, [r1, #28]
20001d5c:	f1ba 0f00 	cmp.w	sl, #0
20001d60:	d04e      	beq.n	20001e00 <QSPI_Config+0xc4>
20001d62:	694b      	ldr	r3, [r1, #20]
20001d64:	6805      	ldr	r5, [r0, #0]
20001d66:	f8d1 8000 	ldr.w	r8, [r1]
20001d6a:	6b48      	ldr	r0, [r1, #52]	; 0x34
20001d6c:	ea46 0a0a 	orr.w	sl, r6, sl
20001d70:	e9d1 490b 	ldrd	r4, r9, [r1, #44]	; 0x2c
20001d74:	ea4f 4e83 	mov.w	lr, r3, lsl #18
20001d78:	ea4a 0a02 	orr.w	sl, sl, r2
20001d7c:	f1bc 0f00 	cmp.w	ip, #0
20001d80:	d026      	beq.n	20001dd0 <QSPI_Config+0x94>
20001d82:	688b      	ldr	r3, [r1, #8]
20001d84:	61eb      	str	r3, [r5, #28]
20001d86:	690e      	ldr	r6, [r1, #16]
20001d88:	ea4c 0c0a 	orr.w	ip, ip, sl
20001d8c:	b1a7      	cbz	r7, 20001db8 <QSPI_Config+0x7c>
20001d8e:	ea48 0307 	orr.w	r3, r8, r7
20001d92:	4323      	orrs	r3, r4
20001d94:	ea43 0309 	orr.w	r3, r3, r9
20001d98:	4303      	orrs	r3, r0
20001d9a:	68c8      	ldr	r0, [r1, #12]
20001d9c:	4333      	orrs	r3, r6
20001d9e:	4303      	orrs	r3, r0
20001da0:	ea43 030e 	orr.w	r3, r3, lr
20001da4:	ea43 030c 	orr.w	r3, r3, ip
20001da8:	f1b2 6f40 	cmp.w	r2, #201326592	; 0xc000000
20001dac:	616b      	str	r3, [r5, #20]
20001dae:	d001      	beq.n	20001db4 <QSPI_Config+0x78>
20001db0:	684b      	ldr	r3, [r1, #4]
20001db2:	61ab      	str	r3, [r5, #24]
20001db4:	e8bd 87f0 	ldmia.w	sp!, {r4, r5, r6, r7, r8, r9, sl, pc}
20001db8:	ea48 0304 	orr.w	r3, r8, r4
20001dbc:	ea43 0309 	orr.w	r3, r3, r9
20001dc0:	4303      	orrs	r3, r0
20001dc2:	4333      	orrs	r3, r6
20001dc4:	ea43 030e 	orr.w	r3, r3, lr
20001dc8:	ea43 030c 	orr.w	r3, r3, ip
20001dcc:	616b      	str	r3, [r5, #20]
20001dce:	e7f1      	b.n	20001db4 <QSPI_Config+0x78>
20001dd0:	b167      	cbz	r7, 20001dec <QSPI_Config+0xb0>
20001dd2:	ea48 0307 	orr.w	r3, r8, r7
20001dd6:	4323      	orrs	r3, r4
20001dd8:	ea43 0309 	orr.w	r3, r3, r9
20001ddc:	4303      	orrs	r3, r0
20001dde:	68c8      	ldr	r0, [r1, #12]
20001de0:	4303      	orrs	r3, r0
20001de2:	ea43 030e 	orr.w	r3, r3, lr
20001de6:	ea43 030a 	orr.w	r3, r3, sl
20001dea:	e7dd      	b.n	20001da8 <QSPI_Config+0x6c>
20001dec:	ea48 0304 	orr.w	r3, r8, r4
20001df0:	ea43 0309 	orr.w	r3, r3, r9
20001df4:	4303      	orrs	r3, r0
20001df6:	ea43 030e 	orr.w	r3, r3, lr
20001dfa:	ea43 030a 	orr.w	r3, r3, sl
20001dfe:	e7e5      	b.n	20001dcc <QSPI_Config+0x90>
20001e00:	f1bc 0f00 	cmp.w	ip, #0
20001e04:	d028      	beq.n	20001e58 <QSPI_Config+0x11c>
20001e06:	6804      	ldr	r4, [r0, #0]
20001e08:	688b      	ldr	r3, [r1, #8]
20001e0a:	61e3      	str	r3, [r4, #28]
20001e0c:	ea46 030c 	orr.w	r3, r6, ip
20001e10:	694e      	ldr	r6, [r1, #20]
20001e12:	6908      	ldr	r0, [r1, #16]
20001e14:	f8d1 c034 	ldr.w	ip, [r1, #52]	; 0x34
20001e18:	ea43 0502 	orr.w	r5, r3, r2
20001e1c:	04b6      	lsls	r6, r6, #18
20001e1e:	e9d1 830b 	ldrd	r8, r3, [r1, #44]	; 0x2c
20001e22:	b187      	cbz	r7, 20001e46 <QSPI_Config+0x10a>
20001e24:	4338      	orrs	r0, r7
20001e26:	ea40 0008 	orr.w	r0, r0, r8
20001e2a:	4303      	orrs	r3, r0
20001e2c:	68c8      	ldr	r0, [r1, #12]
20001e2e:	ea43 030c 	orr.w	r3, r3, ip
20001e32:	4303      	orrs	r3, r0
20001e34:	4333      	orrs	r3, r6
20001e36:	432b      	orrs	r3, r5
20001e38:	f1b2 6f40 	cmp.w	r2, #201326592	; 0xc000000
20001e3c:	6163      	str	r3, [r4, #20]
20001e3e:	d0b9      	beq.n	20001db4 <QSPI_Config+0x78>
20001e40:	684b      	ldr	r3, [r1, #4]
20001e42:	61a3      	str	r3, [r4, #24]
20001e44:	e7b6      	b.n	20001db4 <QSPI_Config+0x78>
20001e46:	ea40 0008 	orr.w	r0, r0, r8
20001e4a:	4303      	orrs	r3, r0
20001e4c:	ea43 030c 	orr.w	r3, r3, ip
20001e50:	4333      	orrs	r3, r6
20001e52:	432b      	orrs	r3, r5
20001e54:	6163      	str	r3, [r4, #20]
20001e56:	e7ad      	b.n	20001db4 <QSPI_Config+0x78>
20001e58:	b1af      	cbz	r7, 20001e86 <QSPI_Config+0x14a>
20001e5a:	6acc      	ldr	r4, [r1, #44]	; 0x2c
20001e5c:	6800      	ldr	r0, [r0, #0]
20001e5e:	ea46 0307 	orr.w	r3, r6, r7
20001e62:	4313      	orrs	r3, r2
20001e64:	4323      	orrs	r3, r4
20001e66:	6b0c      	ldr	r4, [r1, #48]	; 0x30
20001e68:	4323      	orrs	r3, r4
20001e6a:	6b4c      	ldr	r4, [r1, #52]	; 0x34
20001e6c:	4323      	orrs	r3, r4
20001e6e:	68cc      	ldr	r4, [r1, #12]
20001e70:	4323      	orrs	r3, r4
20001e72:	694c      	ldr	r4, [r1, #20]
20001e74:	f1b2 6f40 	cmp.w	r2, #201326592	; 0xc000000
20001e78:	ea43 4384 	orr.w	r3, r3, r4, lsl #18
20001e7c:	6143      	str	r3, [r0, #20]
20001e7e:	d099      	beq.n	20001db4 <QSPI_Config+0x78>
20001e80:	684b      	ldr	r3, [r1, #4]
20001e82:	6183      	str	r3, [r0, #24]
20001e84:	e796      	b.n	20001db4 <QSPI_Config+0x78>
20001e86:	2e00      	cmp	r6, #0
20001e88:	d094      	beq.n	20001db4 <QSPI_Config+0x78>
20001e8a:	6acb      	ldr	r3, [r1, #44]	; 0x2c
20001e8c:	6800      	ldr	r0, [r0, #0]
20001e8e:	4333      	orrs	r3, r6
20001e90:	6b0e      	ldr	r6, [r1, #48]	; 0x30
20001e92:	431a      	orrs	r2, r3
20001e94:	4332      	orrs	r2, r6
20001e96:	6b4e      	ldr	r6, [r1, #52]	; 0x34
20001e98:	694b      	ldr	r3, [r1, #20]
20001e9a:	4332      	orrs	r2, r6
20001e9c:	ea42 4283 	orr.w	r2, r2, r3, lsl #18
20001ea0:	6142      	str	r2, [r0, #20]
20001ea2:	e787      	b.n	20001db4 <QSPI_Config+0x78>

20001ea4 <QSPI_WaitFlagStateUntilTimeout>:
20001ea4:	e92d 41f0 	stmdb	sp!, {r4, r5, r6, r7, r8, lr}
20001ea8:	9d06      	ldr	r5, [sp, #24]
20001eaa:	4604      	mov	r4, r0
20001eac:	460f      	mov	r7, r1
20001eae:	4616      	mov	r6, r2
20001eb0:	4698      	mov	r8, r3
20001eb2:	6821      	ldr	r1, [r4, #0]
20001eb4:	688a      	ldr	r2, [r1, #8]
20001eb6:	423a      	tst	r2, r7
20001eb8:	bf14      	ite	ne
20001eba:	2201      	movne	r2, #1
20001ebc:	2200      	moveq	r2, #0
20001ebe:	42b2      	cmp	r2, r6
20001ec0:	d101      	bne.n	20001ec6 <QSPI_WaitFlagStateUntilTimeout+0x22>
20001ec2:	2000      	movs	r0, #0
20001ec4:	e00a      	b.n	20001edc <QSPI_WaitFlagStateUntilTimeout+0x38>
20001ec6:	1c6b      	adds	r3, r5, #1
20001ec8:	d0f4      	beq.n	20001eb4 <QSPI_WaitFlagStateUntilTimeout+0x10>
20001eca:	b94d      	cbnz	r5, 20001ee0 <QSPI_WaitFlagStateUntilTimeout+0x3c>
20001ecc:	2304      	movs	r3, #4
20001ece:	f884 3041 	strb.w	r3, [r4, #65]	; 0x41
20001ed2:	6c63      	ldr	r3, [r4, #68]	; 0x44
20001ed4:	f043 0301 	orr.w	r3, r3, #1
20001ed8:	6463      	str	r3, [r4, #68]	; 0x44
20001eda:	2001      	movs	r0, #1
20001edc:	e8bd 81f0 	ldmia.w	sp!, {r4, r5, r6, r7, r8, pc}
20001ee0:	f7fe ff8c 	bl	20000dfc <HAL_GetTick>
20001ee4:	eba0 0008 	sub.w	r0, r0, r8
20001ee8:	42a8      	cmp	r0, r5
20001eea:	d9e2      	bls.n	20001eb2 <QSPI_WaitFlagStateUntilTimeout+0xe>
20001eec:	e7ee      	b.n	20001ecc <QSPI_WaitFlagStateUntilTimeout+0x28>
20001eee:	4770      	bx	lr

20001ef0 <HAL_QSPI_Init>:
20001ef0:	b537      	push	{r0, r1, r2, r4, r5, lr}
20001ef2:	4604      	mov	r4, r0
20001ef4:	f7fe ff82 	bl	20000dfc <HAL_GetTick>
20001ef8:	4605      	mov	r5, r0
20001efa:	2c00      	cmp	r4, #0
20001efc:	d046      	beq.n	20001f8c <HAL_QSPI_Init+0x9c>
20001efe:	f894 2041 	ldrb.w	r2, [r4, #65]	; 0x41
20001f02:	f002 03ff 	and.w	r3, r2, #255	; 0xff
20001f06:	b93a      	cbnz	r2, 20001f18 <HAL_QSPI_Init+0x28>
20001f08:	f884 3040 	strb.w	r3, [r4, #64]	; 0x40
20001f0c:	4620      	mov	r0, r4
20001f0e:	f7fe fba1 	bl	20000654 <HAL_QSPI_MspInit>
20001f12:	f241 3388 	movw	r3, #5000	; 0x1388
20001f16:	64a3      	str	r3, [r4, #72]	; 0x48
20001f18:	6820      	ldr	r0, [r4, #0]
20001f1a:	68a1      	ldr	r1, [r4, #8]
20001f1c:	6802      	ldr	r2, [r0, #0]
20001f1e:	6ca3      	ldr	r3, [r4, #72]	; 0x48
20001f20:	3901      	subs	r1, #1
20001f22:	f422 52f8 	bic.w	r2, r2, #7936	; 0x1f00
20001f26:	ea42 2201 	orr.w	r2, r2, r1, lsl #8
20001f2a:	6002      	str	r2, [r0, #0]
20001f2c:	2120      	movs	r1, #32
20001f2e:	9300      	str	r3, [sp, #0]
20001f30:	2200      	movs	r2, #0
20001f32:	462b      	mov	r3, r5
20001f34:	4620      	mov	r0, r4
20001f36:	f7ff ffb5 	bl	20001ea4 <QSPI_WaitFlagStateUntilTimeout>
20001f3a:	bb10      	cbnz	r0, 20001f82 <HAL_QSPI_Init+0x92>
20001f3c:	69e5      	ldr	r5, [r4, #28]
20001f3e:	68e3      	ldr	r3, [r4, #12]
20001f40:	6822      	ldr	r2, [r4, #0]
20001f42:	432b      	orrs	r3, r5
20001f44:	6a25      	ldr	r5, [r4, #32]
20001f46:	6811      	ldr	r1, [r2, #0]
20001f48:	432b      	orrs	r3, r5
20001f4a:	6865      	ldr	r5, [r4, #4]
20001f4c:	f021 417f 	bic.w	r1, r1, #4278190080	; 0xff000000
20001f50:	ea43 6305 	orr.w	r3, r3, r5, lsl #24
20001f54:	f021 01d0 	bic.w	r1, r1, #208	; 0xd0
20001f58:	430b      	orrs	r3, r1
20001f5a:	6013      	str	r3, [r2, #0]
20001f5c:	e9d4 3105 	ldrd	r3, r1, [r4, #20]
20001f60:	430b      	orrs	r3, r1
20001f62:	6921      	ldr	r1, [r4, #16]
20001f64:	6855      	ldr	r5, [r2, #4]
20001f66:	ea43 4301 	orr.w	r3, r3, r1, lsl #16
20001f6a:	4909      	ldr	r1, [pc, #36]	; (20001f90 <HAL_QSPI_Init+0xa0>)
20001f6c:	4029      	ands	r1, r5
20001f6e:	430b      	orrs	r3, r1
20001f70:	6053      	str	r3, [r2, #4]
20001f72:	6813      	ldr	r3, [r2, #0]
20001f74:	f043 0301 	orr.w	r3, r3, #1
20001f78:	6013      	str	r3, [r2, #0]
20001f7a:	2301      	movs	r3, #1
20001f7c:	6460      	str	r0, [r4, #68]	; 0x44
20001f7e:	f884 3041 	strb.w	r3, [r4, #65]	; 0x41
20001f82:	2300      	movs	r3, #0
20001f84:	f884 3040 	strb.w	r3, [r4, #64]	; 0x40
20001f88:	b003      	add	sp, #12
20001f8a:	bd30      	pop	{r4, r5, pc}
20001f8c:	2001      	movs	r0, #1
20001f8e:	e7fb      	b.n	20001f88 <HAL_QSPI_Init+0x98>
20001f90:	ffe0f8fe 	.word	0xffe0f8fe
20001f94:	4770      	bx	lr

20001f96 <HAL_QSPI_DeInit>:
20001f96:	b510      	push	{r4, lr}
20001f98:	4604      	mov	r4, r0
20001f9a:	b168      	cbz	r0, 20001fb8 <HAL_QSPI_DeInit+0x22>
20001f9c:	6802      	ldr	r2, [r0, #0]
20001f9e:	6813      	ldr	r3, [r2, #0]
20001fa0:	f023 0301 	bic.w	r3, r3, #1
20001fa4:	6013      	str	r3, [r2, #0]
20001fa6:	f7fe fbc7 	bl	20000738 <HAL_QSPI_MspDeInit>
20001faa:	2000      	movs	r0, #0
20001fac:	6460      	str	r0, [r4, #68]	; 0x44
20001fae:	f884 0041 	strb.w	r0, [r4, #65]	; 0x41
20001fb2:	f884 0040 	strb.w	r0, [r4, #64]	; 0x40
20001fb6:	bd10      	pop	{r4, pc}
20001fb8:	2001      	movs	r0, #1
20001fba:	e7fc      	b.n	20001fb6 <HAL_QSPI_DeInit+0x20>

20001fbc <HAL_QSPI_Command>:
20001fbc:	e92d 47f3 	stmdb	sp!, {r0, r1, r4, r5, r6, r7, r8, r9, sl, lr}
20001fc0:	4604      	mov	r4, r0
20001fc2:	468a      	mov	sl, r1
20001fc4:	4691      	mov	r9, r2
20001fc6:	f7fe ff19 	bl	20000dfc <HAL_GetTick>
20001fca:	f894 3040 	ldrb.w	r3, [r4, #64]	; 0x40
20001fce:	2b01      	cmp	r3, #1
20001fd0:	4680      	mov	r8, r0
20001fd2:	d035      	beq.n	20002040 <HAL_QSPI_Command+0x84>
20001fd4:	2301      	movs	r3, #1
20001fd6:	f884 3040 	strb.w	r3, [r4, #64]	; 0x40
20001fda:	f894 6041 	ldrb.w	r6, [r4, #65]	; 0x41
20001fde:	b2f6      	uxtb	r6, r6
20001fe0:	429e      	cmp	r6, r3
20001fe2:	f04f 0702 	mov.w	r7, #2
20001fe6:	d129      	bne.n	2000203c <HAL_QSPI_Command+0x80>
20001fe8:	2200      	movs	r2, #0
20001fea:	6462      	str	r2, [r4, #68]	; 0x44
20001fec:	4603      	mov	r3, r0
20001fee:	f884 7041 	strb.w	r7, [r4, #65]	; 0x41
20001ff2:	f8cd 9000 	str.w	r9, [sp]
20001ff6:	2120      	movs	r1, #32
20001ff8:	4620      	mov	r0, r4
20001ffa:	f7ff ff53 	bl	20001ea4 <QSPI_WaitFlagStateUntilTimeout>
20001ffe:	4605      	mov	r5, r0
20002000:	b9a8      	cbnz	r0, 2000202e <HAL_QSPI_Command+0x72>
20002002:	4602      	mov	r2, r0
20002004:	4651      	mov	r1, sl
20002006:	4620      	mov	r0, r4
20002008:	f7ff fe98 	bl	20001d3c <QSPI_Config>
2000200c:	f8da 3024 	ldr.w	r3, [sl, #36]	; 0x24
20002010:	b95b      	cbnz	r3, 2000202a <HAL_QSPI_Command+0x6e>
20002012:	f8cd 9000 	str.w	r9, [sp]
20002016:	4643      	mov	r3, r8
20002018:	4632      	mov	r2, r6
2000201a:	4639      	mov	r1, r7
2000201c:	4620      	mov	r0, r4
2000201e:	f7ff ff41 	bl	20001ea4 <QSPI_WaitFlagStateUntilTimeout>
20002022:	4605      	mov	r5, r0
20002024:	b918      	cbnz	r0, 2000202e <HAL_QSPI_Command+0x72>
20002026:	6823      	ldr	r3, [r4, #0]
20002028:	60df      	str	r7, [r3, #12]
2000202a:	f884 6041 	strb.w	r6, [r4, #65]	; 0x41
2000202e:	2300      	movs	r3, #0
20002030:	f884 3040 	strb.w	r3, [r4, #64]	; 0x40
20002034:	4628      	mov	r0, r5
20002036:	b002      	add	sp, #8
20002038:	e8bd 87f0 	ldmia.w	sp!, {r4, r5, r6, r7, r8, r9, sl, pc}
2000203c:	463d      	mov	r5, r7
2000203e:	e7f6      	b.n	2000202e <HAL_QSPI_Command+0x72>
20002040:	2502      	movs	r5, #2
20002042:	e7f7      	b.n	20002034 <HAL_QSPI_Command+0x78>

20002044 <HAL_QSPI_Command_IT>:
20002044:	b573      	push	{r0, r1, r4, r5, r6, lr}
20002046:	2300      	movs	r3, #0
20002048:	9301      	str	r3, [sp, #4]
2000204a:	f890 2040 	ldrb.w	r2, [r0, #64]	; 0x40
2000204e:	2a01      	cmp	r2, #1
20002050:	4604      	mov	r4, r0
20002052:	460e      	mov	r6, r1
20002054:	d043      	beq.n	200020de <HAL_QSPI_Command_IT+0x9a>
20002056:	2201      	movs	r2, #1
20002058:	f880 2040 	strb.w	r2, [r0, #64]	; 0x40
2000205c:	f890 2041 	ldrb.w	r2, [r0, #65]	; 0x41
20002060:	2a01      	cmp	r2, #1
20002062:	f04f 0502 	mov.w	r5, #2
20002066:	d137      	bne.n	200020d8 <HAL_QSPI_Command_IT+0x94>
20002068:	4a1e      	ldr	r2, [pc, #120]	; (200020e4 <HAL_QSPI_Command_IT+0xa0>)
2000206a:	6443      	str	r3, [r0, #68]	; 0x44
2000206c:	6812      	ldr	r2, [r2, #0]
2000206e:	f880 5041 	strb.w	r5, [r0, #65]	; 0x41
20002072:	f44f 517a 	mov.w	r1, #16000	; 0x3e80
20002076:	fbb2 f1f1 	udiv	r1, r2, r1
2000207a:	6c82      	ldr	r2, [r0, #72]	; 0x48
2000207c:	434a      	muls	r2, r1
2000207e:	9201      	str	r2, [sp, #4]
20002080:	6802      	ldr	r2, [r0, #0]
20002082:	461d      	mov	r5, r3
20002084:	2104      	movs	r1, #4
20002086:	9b01      	ldr	r3, [sp, #4]
20002088:	1e58      	subs	r0, r3, #1
2000208a:	9001      	str	r0, [sp, #4]
2000208c:	b933      	cbnz	r3, 2000209c <HAL_QSPI_Command_IT+0x58>
2000208e:	f884 1041 	strb.w	r1, [r4, #65]	; 0x41
20002092:	6c63      	ldr	r3, [r4, #68]	; 0x44
20002094:	f043 0301 	orr.w	r3, r3, #1
20002098:	6463      	str	r3, [r4, #68]	; 0x44
2000209a:	2503      	movs	r5, #3
2000209c:	6893      	ldr	r3, [r2, #8]
2000209e:	f013 0320 	ands.w	r3, r3, #32
200020a2:	d1f0      	bne.n	20002086 <HAL_QSPI_Command_IT+0x42>
200020a4:	b9c5      	cbnz	r5, 200020d8 <HAL_QSPI_Command_IT+0x94>
200020a6:	6a73      	ldr	r3, [r6, #36]	; 0x24
200020a8:	b90b      	cbnz	r3, 200020ae <HAL_QSPI_Command_IT+0x6a>
200020aa:	2303      	movs	r3, #3
200020ac:	60d3      	str	r3, [r2, #12]
200020ae:	2200      	movs	r2, #0
200020b0:	4631      	mov	r1, r6
200020b2:	4620      	mov	r0, r4
200020b4:	f7ff fe42 	bl	20001d3c <QSPI_Config>
200020b8:	6a73      	ldr	r3, [r6, #36]	; 0x24
200020ba:	b94b      	cbnz	r3, 200020d0 <HAL_QSPI_Command_IT+0x8c>
200020bc:	6822      	ldr	r2, [r4, #0]
200020be:	f884 3040 	strb.w	r3, [r4, #64]	; 0x40
200020c2:	6813      	ldr	r3, [r2, #0]
200020c4:	f443 3340 	orr.w	r3, r3, #196608	; 0x30000
200020c8:	6013      	str	r3, [r2, #0]
200020ca:	4628      	mov	r0, r5
200020cc:	b002      	add	sp, #8
200020ce:	bd70      	pop	{r4, r5, r6, pc}
200020d0:	2301      	movs	r3, #1
200020d2:	f884 3041 	strb.w	r3, [r4, #65]	; 0x41
200020d6:	2300      	movs	r3, #0
200020d8:	f884 3040 	strb.w	r3, [r4, #64]	; 0x40
200020dc:	e7f5      	b.n	200020ca <HAL_QSPI_Command_IT+0x86>
200020de:	2502      	movs	r5, #2
200020e0:	e7f3      	b.n	200020ca <HAL_QSPI_Command_IT+0x86>
200020e2:	bf00      	nop
200020e4:	20003938 	.word	0x20003938

200020e8 <HAL_QSPI_Transmit_IT>:
200020e8:	f890 3040 	ldrb.w	r3, [r0, #64]	; 0x40
200020ec:	2b01      	cmp	r3, #1
200020ee:	b510      	push	{r4, lr}
200020f0:	d02e      	beq.n	20002150 <HAL_QSPI_Transmit_IT+0x68>
200020f2:	2301      	movs	r3, #1
200020f4:	f880 3040 	strb.w	r3, [r0, #64]	; 0x40
200020f8:	f890 3041 	ldrb.w	r3, [r0, #65]	; 0x41
200020fc:	b2db      	uxtb	r3, r3
200020fe:	2b01      	cmp	r3, #1
20002100:	f04f 0200 	mov.w	r2, #0
20002104:	d122      	bne.n	2000214c <HAL_QSPI_Transmit_IT+0x64>
20002106:	6442      	str	r2, [r0, #68]	; 0x44
20002108:	b1c1      	cbz	r1, 2000213c <HAL_QSPI_Transmit_IT+0x54>
2000210a:	2312      	movs	r3, #18
2000210c:	f880 3041 	strb.w	r3, [r0, #65]	; 0x41
20002110:	6803      	ldr	r3, [r0, #0]
20002112:	691c      	ldr	r4, [r3, #16]
20002114:	3401      	adds	r4, #1
20002116:	62c4      	str	r4, [r0, #44]	; 0x2c
20002118:	691c      	ldr	r4, [r3, #16]
2000211a:	6241      	str	r1, [r0, #36]	; 0x24
2000211c:	3401      	adds	r4, #1
2000211e:	6284      	str	r4, [r0, #40]	; 0x28
20002120:	6959      	ldr	r1, [r3, #20]
20002122:	f021 6140 	bic.w	r1, r1, #201326592	; 0xc000000
20002126:	6159      	str	r1, [r3, #20]
20002128:	2103      	movs	r1, #3
2000212a:	60d9      	str	r1, [r3, #12]
2000212c:	f880 2040 	strb.w	r2, [r0, #64]	; 0x40
20002130:	6819      	ldr	r1, [r3, #0]
20002132:	f441 21e0 	orr.w	r1, r1, #458752	; 0x70000
20002136:	6019      	str	r1, [r3, #0]
20002138:	4610      	mov	r0, r2
2000213a:	bd10      	pop	{r4, pc}
2000213c:	6c42      	ldr	r2, [r0, #68]	; 0x44
2000213e:	f042 0208 	orr.w	r2, r2, #8
20002142:	6442      	str	r2, [r0, #68]	; 0x44
20002144:	f880 1040 	strb.w	r1, [r0, #64]	; 0x40
20002148:	4618      	mov	r0, r3
2000214a:	e7f6      	b.n	2000213a <HAL_QSPI_Transmit_IT+0x52>
2000214c:	f880 2040 	strb.w	r2, [r0, #64]	; 0x40
20002150:	2002      	movs	r0, #2
20002152:	e7f2      	b.n	2000213a <HAL_QSPI_Transmit_IT+0x52>

20002154 <HAL_QSPI_Receive_IT>:
20002154:	6802      	ldr	r2, [r0, #0]
20002156:	b530      	push	{r4, r5, lr}
20002158:	6995      	ldr	r5, [r2, #24]
2000215a:	f890 3040 	ldrb.w	r3, [r0, #64]	; 0x40
2000215e:	2b01      	cmp	r3, #1
20002160:	d030      	beq.n	200021c4 <HAL_QSPI_Receive_IT+0x70>
20002162:	2301      	movs	r3, #1
20002164:	f880 3040 	strb.w	r3, [r0, #64]	; 0x40
20002168:	f890 3041 	ldrb.w	r3, [r0, #65]	; 0x41
2000216c:	b2db      	uxtb	r3, r3
2000216e:	2b01      	cmp	r3, #1
20002170:	f04f 0400 	mov.w	r4, #0
20002174:	d124      	bne.n	200021c0 <HAL_QSPI_Receive_IT+0x6c>
20002176:	6444      	str	r4, [r0, #68]	; 0x44
20002178:	b1d1      	cbz	r1, 200021b0 <HAL_QSPI_Receive_IT+0x5c>
2000217a:	2322      	movs	r3, #34	; 0x22
2000217c:	f880 3041 	strb.w	r3, [r0, #65]	; 0x41
20002180:	6913      	ldr	r3, [r2, #16]
20002182:	3301      	adds	r3, #1
20002184:	6383      	str	r3, [r0, #56]	; 0x38
20002186:	6913      	ldr	r3, [r2, #16]
20002188:	6301      	str	r1, [r0, #48]	; 0x30
2000218a:	3301      	adds	r3, #1
2000218c:	6343      	str	r3, [r0, #52]	; 0x34
2000218e:	6953      	ldr	r3, [r2, #20]
20002190:	f023 6340 	bic.w	r3, r3, #201326592	; 0xc000000
20002194:	f043 6380 	orr.w	r3, r3, #67108864	; 0x4000000
20002198:	6153      	str	r3, [r2, #20]
2000219a:	2303      	movs	r3, #3
2000219c:	6195      	str	r5, [r2, #24]
2000219e:	60d3      	str	r3, [r2, #12]
200021a0:	f880 4040 	strb.w	r4, [r0, #64]	; 0x40
200021a4:	6813      	ldr	r3, [r2, #0]
200021a6:	f443 23e0 	orr.w	r3, r3, #458752	; 0x70000
200021aa:	6013      	str	r3, [r2, #0]
200021ac:	4620      	mov	r0, r4
200021ae:	bd30      	pop	{r4, r5, pc}
200021b0:	6c42      	ldr	r2, [r0, #68]	; 0x44
200021b2:	f042 0208 	orr.w	r2, r2, #8
200021b6:	6442      	str	r2, [r0, #68]	; 0x44
200021b8:	f880 1040 	strb.w	r1, [r0, #64]	; 0x40
200021bc:	4618      	mov	r0, r3
200021be:	e7f6      	b.n	200021ae <HAL_QSPI_Receive_IT+0x5a>
200021c0:	f880 4040 	strb.w	r4, [r0, #64]	; 0x40
200021c4:	2002      	movs	r0, #2
200021c6:	e7f2      	b.n	200021ae <HAL_QSPI_Receive_IT+0x5a>

200021c8 <HAL_QSPI_Transmit_DMA>:
200021c8:	6802      	ldr	r2, [r0, #0]
200021ca:	b570      	push	{r4, r5, r6, lr}
200021cc:	6913      	ldr	r3, [r2, #16]
200021ce:	4604      	mov	r4, r0
200021d0:	f890 0040 	ldrb.w	r0, [r0, #64]	; 0x40
200021d4:	2801      	cmp	r0, #1
200021d6:	d06d      	beq.n	200022b4 <HAL_QSPI_Transmit_DMA+0xec>
200021d8:	2001      	movs	r0, #1
200021da:	f884 0040 	strb.w	r0, [r4, #64]	; 0x40
200021de:	f894 0041 	ldrb.w	r0, [r4, #65]	; 0x41
200021e2:	b2c0      	uxtb	r0, r0
200021e4:	2801      	cmp	r0, #1
200021e6:	f04f 0500 	mov.w	r5, #0
200021ea:	d161      	bne.n	200022b0 <HAL_QSPI_Transmit_DMA+0xe8>
200021ec:	6465      	str	r5, [r4, #68]	; 0x44
200021ee:	2900      	cmp	r1, #0
200021f0:	d057      	beq.n	200022a2 <HAL_QSPI_Transmit_DMA+0xda>
200021f2:	6be0      	ldr	r0, [r4, #60]	; 0x3c
200021f4:	6945      	ldr	r5, [r0, #20]
200021f6:	3301      	adds	r3, #1
200021f8:	2d00      	cmp	r5, #0
200021fa:	d135      	bne.n	20002268 <HAL_QSPI_Transmit_DMA+0xa0>
200021fc:	62e3      	str	r3, [r4, #44]	; 0x2c
200021fe:	2312      	movs	r3, #18
20002200:	f884 3041 	strb.w	r3, [r4, #65]	; 0x41
20002204:	2303      	movs	r3, #3
20002206:	60d3      	str	r3, [r2, #12]
20002208:	6ae3      	ldr	r3, [r4, #44]	; 0x2c
2000220a:	62a3      	str	r3, [r4, #40]	; 0x28
2000220c:	6953      	ldr	r3, [r2, #20]
2000220e:	6261      	str	r1, [r4, #36]	; 0x24
20002210:	f023 6340 	bic.w	r3, r3, #201326592	; 0xc000000
20002214:	6153      	str	r3, [r2, #20]
20002216:	4b28      	ldr	r3, [pc, #160]	; (200022b8 <HAL_QSPI_Transmit_DMA+0xf0>)
20002218:	63c3      	str	r3, [r0, #60]	; 0x3c
2000221a:	4b28      	ldr	r3, [pc, #160]	; (200022bc <HAL_QSPI_Transmit_DMA+0xf4>)
2000221c:	6806      	ldr	r6, [r0, #0]
2000221e:	6403      	str	r3, [r0, #64]	; 0x40
20002220:	4b27      	ldr	r3, [pc, #156]	; (200022c0 <HAL_QSPI_Transmit_DMA+0xf8>)
20002222:	64c3      	str	r3, [r0, #76]	; 0x4c
20002224:	2500      	movs	r5, #0
20002226:	f44f 7300 	mov.w	r3, #512	; 0x200
2000222a:	e9c0 3503 	strd	r3, r5, [r0, #12]
2000222e:	6833      	ldr	r3, [r6, #0]
20002230:	6505      	str	r5, [r0, #80]	; 0x50
20002232:	f423 63c0 	bic.w	r3, r3, #1536	; 0x600
20002236:	f443 7300 	orr.w	r3, r3, #512	; 0x200
2000223a:	6033      	str	r3, [r6, #0]
2000223c:	6833      	ldr	r3, [r6, #0]
2000223e:	6085      	str	r5, [r0, #8]
20002240:	f023 03c0 	bic.w	r3, r3, #192	; 0xc0
20002244:	6033      	str	r3, [r6, #0]
20002246:	6aa3      	ldr	r3, [r4, #40]	; 0x28
20002248:	3220      	adds	r2, #32
2000224a:	f7ff f8c9 	bl	200013e0 <HAL_DMA_Start_IT>
2000224e:	6823      	ldr	r3, [r4, #0]
20002250:	f884 5040 	strb.w	r5, [r4, #64]	; 0x40
20002254:	681a      	ldr	r2, [r3, #0]
20002256:	f442 3280 	orr.w	r2, r2, #65536	; 0x10000
2000225a:	601a      	str	r2, [r3, #0]
2000225c:	681a      	ldr	r2, [r3, #0]
2000225e:	f042 0204 	orr.w	r2, r2, #4
20002262:	601a      	str	r2, [r3, #0]
20002264:	4628      	mov	r0, r5
20002266:	e00f      	b.n	20002288 <HAL_QSPI_Transmit_DMA+0xc0>
20002268:	f5b5 6f00 	cmp.w	r5, #2048	; 0x800
2000226c:	d10f      	bne.n	2000228e <HAL_QSPI_Transmit_DMA+0xc6>
2000226e:	07de      	lsls	r6, r3, #31
20002270:	d402      	bmi.n	20002278 <HAL_QSPI_Transmit_DMA+0xb0>
20002272:	68a5      	ldr	r5, [r4, #8]
20002274:	07ed      	lsls	r5, r5, #31
20002276:	d508      	bpl.n	2000228a <HAL_QSPI_Transmit_DMA+0xc2>
20002278:	6c63      	ldr	r3, [r4, #68]	; 0x44
2000227a:	f043 0308 	orr.w	r3, r3, #8
2000227e:	6463      	str	r3, [r4, #68]	; 0x44
20002280:	2300      	movs	r3, #0
20002282:	f884 3040 	strb.w	r3, [r4, #64]	; 0x40
20002286:	2001      	movs	r0, #1
20002288:	bd70      	pop	{r4, r5, r6, pc}
2000228a:	085b      	lsrs	r3, r3, #1
2000228c:	e7b6      	b.n	200021fc <HAL_QSPI_Transmit_DMA+0x34>
2000228e:	f5b5 5f80 	cmp.w	r5, #4096	; 0x1000
20002292:	d1b4      	bne.n	200021fe <HAL_QSPI_Transmit_DMA+0x36>
20002294:	079e      	lsls	r6, r3, #30
20002296:	d1ef      	bne.n	20002278 <HAL_QSPI_Transmit_DMA+0xb0>
20002298:	68a5      	ldr	r5, [r4, #8]
2000229a:	07ad      	lsls	r5, r5, #30
2000229c:	d1ec      	bne.n	20002278 <HAL_QSPI_Transmit_DMA+0xb0>
2000229e:	089b      	lsrs	r3, r3, #2
200022a0:	e7ac      	b.n	200021fc <HAL_QSPI_Transmit_DMA+0x34>
200022a2:	6c63      	ldr	r3, [r4, #68]	; 0x44
200022a4:	f043 0308 	orr.w	r3, r3, #8
200022a8:	6463      	str	r3, [r4, #68]	; 0x44
200022aa:	f884 1040 	strb.w	r1, [r4, #64]	; 0x40
200022ae:	e7eb      	b.n	20002288 <HAL_QSPI_Transmit_DMA+0xc0>
200022b0:	f884 5040 	strb.w	r5, [r4, #64]	; 0x40
200022b4:	2002      	movs	r0, #2
200022b6:	e7e7      	b.n	20002288 <HAL_QSPI_Transmit_DMA+0xc0>
200022b8:	20001d2b 	.word	0x20001d2b
200022bc:	20002603 	.word	0x20002603
200022c0:	20002a5d 	.word	0x20002a5d

200022c4 <HAL_QSPI_Receive_DMA>:
200022c4:	b5f8      	push	{r3, r4, r5, r6, r7, lr}
200022c6:	6806      	ldr	r6, [r0, #0]
200022c8:	460a      	mov	r2, r1
200022ca:	69b1      	ldr	r1, [r6, #24]
200022cc:	6937      	ldr	r7, [r6, #16]
200022ce:	f890 3040 	ldrb.w	r3, [r0, #64]	; 0x40
200022d2:	2b01      	cmp	r3, #1
200022d4:	4604      	mov	r4, r0
200022d6:	d07b      	beq.n	200023d0 <HAL_QSPI_Receive_DMA+0x10c>
200022d8:	2301      	movs	r3, #1
200022da:	f880 3040 	strb.w	r3, [r0, #64]	; 0x40
200022de:	f890 0041 	ldrb.w	r0, [r0, #65]	; 0x41
200022e2:	b2c0      	uxtb	r0, r0
200022e4:	4298      	cmp	r0, r3
200022e6:	f04f 0300 	mov.w	r3, #0
200022ea:	d16f      	bne.n	200023cc <HAL_QSPI_Receive_DMA+0x108>
200022ec:	6463      	str	r3, [r4, #68]	; 0x44
200022ee:	2a00      	cmp	r2, #0
200022f0:	d065      	beq.n	200023be <HAL_QSPI_Receive_DMA+0xfa>
200022f2:	6be0      	ldr	r0, [r4, #60]	; 0x3c
200022f4:	6945      	ldr	r5, [r0, #20]
200022f6:	1c7b      	adds	r3, r7, #1
200022f8:	2d00      	cmp	r5, #0
200022fa:	d143      	bne.n	20002384 <HAL_QSPI_Receive_DMA+0xc0>
200022fc:	63a3      	str	r3, [r4, #56]	; 0x38
200022fe:	2322      	movs	r3, #34	; 0x22
20002300:	f884 3041 	strb.w	r3, [r4, #65]	; 0x41
20002304:	2303      	movs	r3, #3
20002306:	60f3      	str	r3, [r6, #12]
20002308:	6ba3      	ldr	r3, [r4, #56]	; 0x38
2000230a:	6363      	str	r3, [r4, #52]	; 0x34
2000230c:	4b31      	ldr	r3, [pc, #196]	; (200023d4 <HAL_QSPI_Receive_DMA+0x110>)
2000230e:	6322      	str	r2, [r4, #48]	; 0x30
20002310:	63c3      	str	r3, [r0, #60]	; 0x3c
20002312:	4b31      	ldr	r3, [pc, #196]	; (200023d8 <HAL_QSPI_Receive_DMA+0x114>)
20002314:	f8d0 c000 	ldr.w	ip, [r0]
20002318:	6403      	str	r3, [r0, #64]	; 0x40
2000231a:	4b30      	ldr	r3, [pc, #192]	; (200023dc <HAL_QSPI_Receive_DMA+0x118>)
2000231c:	64c3      	str	r3, [r0, #76]	; 0x4c
2000231e:	2500      	movs	r5, #0
20002320:	f44f 7300 	mov.w	r3, #512	; 0x200
20002324:	e9c0 3503 	strd	r3, r5, [r0, #12]
20002328:	f8dc 3000 	ldr.w	r3, [ip]
2000232c:	6505      	str	r5, [r0, #80]	; 0x50
2000232e:	f423 63c0 	bic.w	r3, r3, #1536	; 0x600
20002332:	f443 7300 	orr.w	r3, r3, #512	; 0x200
20002336:	f8cc 3000 	str.w	r3, [ip]
2000233a:	3710      	adds	r7, #16
2000233c:	2340      	movs	r3, #64	; 0x40
2000233e:	6083      	str	r3, [r0, #8]
20002340:	6137      	str	r7, [r6, #16]
20002342:	f8dc 3000 	ldr.w	r3, [ip]
20002346:	f023 03c0 	bic.w	r3, r3, #192	; 0xc0
2000234a:	f043 0340 	orr.w	r3, r3, #64	; 0x40
2000234e:	f8cc 3000 	str.w	r3, [ip]
20002352:	6973      	ldr	r3, [r6, #20]
20002354:	f023 6340 	bic.w	r3, r3, #201326592	; 0xc000000
20002358:	f043 6380 	orr.w	r3, r3, #67108864	; 0x4000000
2000235c:	6173      	str	r3, [r6, #20]
2000235e:	61b1      	str	r1, [r6, #24]
20002360:	6b63      	ldr	r3, [r4, #52]	; 0x34
20002362:	f106 0120 	add.w	r1, r6, #32
20002366:	f7ff f83b 	bl	200013e0 <HAL_DMA_Start_IT>
2000236a:	6823      	ldr	r3, [r4, #0]
2000236c:	681a      	ldr	r2, [r3, #0]
2000236e:	f042 0204 	orr.w	r2, r2, #4
20002372:	601a      	str	r2, [r3, #0]
20002374:	f884 5040 	strb.w	r5, [r4, #64]	; 0x40
20002378:	681a      	ldr	r2, [r3, #0]
2000237a:	f442 3280 	orr.w	r2, r2, #65536	; 0x10000
2000237e:	601a      	str	r2, [r3, #0]
20002380:	4628      	mov	r0, r5
20002382:	e00f      	b.n	200023a4 <HAL_QSPI_Receive_DMA+0xe0>
20002384:	f5b5 6f00 	cmp.w	r5, #2048	; 0x800
20002388:	d10f      	bne.n	200023aa <HAL_QSPI_Receive_DMA+0xe6>
2000238a:	07dd      	lsls	r5, r3, #31
2000238c:	d402      	bmi.n	20002394 <HAL_QSPI_Receive_DMA+0xd0>
2000238e:	68a5      	ldr	r5, [r4, #8]
20002390:	07ed      	lsls	r5, r5, #31
20002392:	d508      	bpl.n	200023a6 <HAL_QSPI_Receive_DMA+0xe2>
20002394:	6c63      	ldr	r3, [r4, #68]	; 0x44
20002396:	f043 0308 	orr.w	r3, r3, #8
2000239a:	6463      	str	r3, [r4, #68]	; 0x44
2000239c:	2300      	movs	r3, #0
2000239e:	f884 3040 	strb.w	r3, [r4, #64]	; 0x40
200023a2:	2001      	movs	r0, #1
200023a4:	bdf8      	pop	{r3, r4, r5, r6, r7, pc}
200023a6:	085b      	lsrs	r3, r3, #1
200023a8:	e7a8      	b.n	200022fc <HAL_QSPI_Receive_DMA+0x38>
200023aa:	f5b5 5f80 	cmp.w	r5, #4096	; 0x1000
200023ae:	d1a6      	bne.n	200022fe <HAL_QSPI_Receive_DMA+0x3a>
200023b0:	079d      	lsls	r5, r3, #30
200023b2:	d1ef      	bne.n	20002394 <HAL_QSPI_Receive_DMA+0xd0>
200023b4:	68a5      	ldr	r5, [r4, #8]
200023b6:	07ad      	lsls	r5, r5, #30
200023b8:	d1ec      	bne.n	20002394 <HAL_QSPI_Receive_DMA+0xd0>
200023ba:	089b      	lsrs	r3, r3, #2
200023bc:	e79e      	b.n	200022fc <HAL_QSPI_Receive_DMA+0x38>
200023be:	6c63      	ldr	r3, [r4, #68]	; 0x44
200023c0:	f043 0308 	orr.w	r3, r3, #8
200023c4:	6463      	str	r3, [r4, #68]	; 0x44
200023c6:	f884 2040 	strb.w	r2, [r4, #64]	; 0x40
200023ca:	e7eb      	b.n	200023a4 <HAL_QSPI_Receive_DMA+0xe0>
200023cc:	f884 3040 	strb.w	r3, [r4, #64]	; 0x40
200023d0:	2002      	movs	r0, #2
200023d2:	e7e7      	b.n	200023a4 <HAL_QSPI_Receive_DMA+0xe0>
200023d4:	20001d19 	.word	0x20001d19
200023d8:	200025f7 	.word	0x200025f7
200023dc:	20002a5d 	.word	0x20002a5d

200023e0 <HAL_QSPI_AutoPolling>:
200023e0:	e92d 43f7 	stmdb	sp!, {r0, r1, r2, r4, r5, r6, r7, r8, r9, lr}
200023e4:	4604      	mov	r4, r0
200023e6:	4698      	mov	r8, r3
200023e8:	4689      	mov	r9, r1
200023ea:	4616      	mov	r6, r2
200023ec:	f7fe fd06 	bl	20000dfc <HAL_GetTick>
200023f0:	f894 3040 	ldrb.w	r3, [r4, #64]	; 0x40
200023f4:	2b01      	cmp	r3, #1
200023f6:	4607      	mov	r7, r0
200023f8:	d042      	beq.n	20002480 <HAL_QSPI_AutoPolling+0xa0>
200023fa:	2301      	movs	r3, #1
200023fc:	f884 3040 	strb.w	r3, [r4, #64]	; 0x40
20002400:	f894 5041 	ldrb.w	r5, [r4, #65]	; 0x41
20002404:	b2ed      	uxtb	r5, r5
20002406:	429d      	cmp	r5, r3
20002408:	d138      	bne.n	2000247c <HAL_QSPI_AutoPolling+0x9c>
2000240a:	2342      	movs	r3, #66	; 0x42
2000240c:	2200      	movs	r2, #0
2000240e:	6462      	str	r2, [r4, #68]	; 0x44
20002410:	f8cd 8000 	str.w	r8, [sp]
20002414:	f884 3041 	strb.w	r3, [r4, #65]	; 0x41
20002418:	2120      	movs	r1, #32
2000241a:	4603      	mov	r3, r0
2000241c:	4620      	mov	r0, r4
2000241e:	f7ff fd41 	bl	20001ea4 <QSPI_WaitFlagStateUntilTimeout>
20002422:	bb28      	cbnz	r0, 20002470 <HAL_QSPI_AutoPolling+0x90>
20002424:	6823      	ldr	r3, [r4, #0]
20002426:	6832      	ldr	r2, [r6, #0]
20002428:	629a      	str	r2, [r3, #40]	; 0x28
2000242a:	6872      	ldr	r2, [r6, #4]
2000242c:	625a      	str	r2, [r3, #36]	; 0x24
2000242e:	68b2      	ldr	r2, [r6, #8]
20002430:	62da      	str	r2, [r3, #44]	; 0x2c
20002432:	6819      	ldr	r1, [r3, #0]
20002434:	6932      	ldr	r2, [r6, #16]
20002436:	f421 0140 	bic.w	r1, r1, #12582912	; 0xc00000
2000243a:	f442 0280 	orr.w	r2, r2, #4194304	; 0x400000
2000243e:	430a      	orrs	r2, r1
20002440:	601a      	str	r2, [r3, #0]
20002442:	68f3      	ldr	r3, [r6, #12]
20002444:	f8c9 3028 	str.w	r3, [r9, #40]	; 0x28
20002448:	f04f 6200 	mov.w	r2, #134217728	; 0x8000000
2000244c:	4649      	mov	r1, r9
2000244e:	4620      	mov	r0, r4
20002450:	f7ff fc74 	bl	20001d3c <QSPI_Config>
20002454:	f8cd 8000 	str.w	r8, [sp]
20002458:	463b      	mov	r3, r7
2000245a:	462a      	mov	r2, r5
2000245c:	2108      	movs	r1, #8
2000245e:	4620      	mov	r0, r4
20002460:	f7ff fd20 	bl	20001ea4 <QSPI_WaitFlagStateUntilTimeout>
20002464:	b920      	cbnz	r0, 20002470 <HAL_QSPI_AutoPolling+0x90>
20002466:	6823      	ldr	r3, [r4, #0]
20002468:	2208      	movs	r2, #8
2000246a:	60da      	str	r2, [r3, #12]
2000246c:	f884 5041 	strb.w	r5, [r4, #65]	; 0x41
20002470:	2300      	movs	r3, #0
20002472:	f884 3040 	strb.w	r3, [r4, #64]	; 0x40
20002476:	b003      	add	sp, #12
20002478:	e8bd 83f0 	ldmia.w	sp!, {r4, r5, r6, r7, r8, r9, pc}
2000247c:	2002      	movs	r0, #2
2000247e:	e7f7      	b.n	20002470 <HAL_QSPI_AutoPolling+0x90>
20002480:	2002      	movs	r0, #2
20002482:	e7f8      	b.n	20002476 <HAL_QSPI_AutoPolling+0x96>

20002484 <HAL_QSPI_AutoPolling_IT>:
20002484:	b5f7      	push	{r0, r1, r2, r4, r5, r6, r7, lr}
20002486:	2500      	movs	r5, #0
20002488:	9501      	str	r5, [sp, #4]
2000248a:	f890 3040 	ldrb.w	r3, [r0, #64]	; 0x40
2000248e:	2b01      	cmp	r3, #1
20002490:	4604      	mov	r4, r0
20002492:	d04b      	beq.n	2000252c <HAL_QSPI_AutoPolling_IT+0xa8>
20002494:	2301      	movs	r3, #1
20002496:	f880 3040 	strb.w	r3, [r0, #64]	; 0x40
2000249a:	f890 3041 	ldrb.w	r3, [r0, #65]	; 0x41
2000249e:	2b01      	cmp	r3, #1
200024a0:	d142      	bne.n	20002528 <HAL_QSPI_AutoPolling_IT+0xa4>
200024a2:	2342      	movs	r3, #66	; 0x42
200024a4:	6445      	str	r5, [r0, #68]	; 0x44
200024a6:	f880 3041 	strb.w	r3, [r0, #65]	; 0x41
200024aa:	4b21      	ldr	r3, [pc, #132]	; (20002530 <HAL_QSPI_AutoPolling_IT+0xac>)
200024ac:	f44f 507a 	mov.w	r0, #16000	; 0x3e80
200024b0:	681b      	ldr	r3, [r3, #0]
200024b2:	fbb3 f0f0 	udiv	r0, r3, r0
200024b6:	6ca3      	ldr	r3, [r4, #72]	; 0x48
200024b8:	4343      	muls	r3, r0
200024ba:	9301      	str	r3, [sp, #4]
200024bc:	6823      	ldr	r3, [r4, #0]
200024be:	2604      	movs	r6, #4
200024c0:	9801      	ldr	r0, [sp, #4]
200024c2:	1e47      	subs	r7, r0, #1
200024c4:	9701      	str	r7, [sp, #4]
200024c6:	b930      	cbnz	r0, 200024d6 <HAL_QSPI_AutoPolling_IT+0x52>
200024c8:	f884 6041 	strb.w	r6, [r4, #65]	; 0x41
200024cc:	6c60      	ldr	r0, [r4, #68]	; 0x44
200024ce:	f040 0001 	orr.w	r0, r0, #1
200024d2:	6460      	str	r0, [r4, #68]	; 0x44
200024d4:	2503      	movs	r5, #3
200024d6:	6898      	ldr	r0, [r3, #8]
200024d8:	f010 0020 	ands.w	r0, r0, #32
200024dc:	d1f0      	bne.n	200024c0 <HAL_QSPI_AutoPolling_IT+0x3c>
200024de:	bb05      	cbnz	r5, 20002522 <HAL_QSPI_AutoPolling_IT+0x9e>
200024e0:	6810      	ldr	r0, [r2, #0]
200024e2:	6298      	str	r0, [r3, #40]	; 0x28
200024e4:	6850      	ldr	r0, [r2, #4]
200024e6:	6258      	str	r0, [r3, #36]	; 0x24
200024e8:	6890      	ldr	r0, [r2, #8]
200024ea:	62d8      	str	r0, [r3, #44]	; 0x2c
200024ec:	e9d2 0704 	ldrd	r0, r7, [r2, #16]
200024f0:	681e      	ldr	r6, [r3, #0]
200024f2:	4338      	orrs	r0, r7
200024f4:	f426 0640 	bic.w	r6, r6, #12582912	; 0xc00000
200024f8:	4330      	orrs	r0, r6
200024fa:	6018      	str	r0, [r3, #0]
200024fc:	2009      	movs	r0, #9
200024fe:	60d8      	str	r0, [r3, #12]
20002500:	68d3      	ldr	r3, [r2, #12]
20002502:	628b      	str	r3, [r1, #40]	; 0x28
20002504:	f04f 6200 	mov.w	r2, #134217728	; 0x8000000
20002508:	4620      	mov	r0, r4
2000250a:	f7ff fc17 	bl	20001d3c <QSPI_Config>
2000250e:	6822      	ldr	r2, [r4, #0]
20002510:	f884 5040 	strb.w	r5, [r4, #64]	; 0x40
20002514:	6813      	ldr	r3, [r2, #0]
20002516:	f443 2310 	orr.w	r3, r3, #589824	; 0x90000
2000251a:	6013      	str	r3, [r2, #0]
2000251c:	4628      	mov	r0, r5
2000251e:	b003      	add	sp, #12
20002520:	bdf0      	pop	{r4, r5, r6, r7, pc}
20002522:	f884 0040 	strb.w	r0, [r4, #64]	; 0x40
20002526:	e7f9      	b.n	2000251c <HAL_QSPI_AutoPolling_IT+0x98>
20002528:	f880 5040 	strb.w	r5, [r0, #64]	; 0x40
2000252c:	2502      	movs	r5, #2
2000252e:	e7f5      	b.n	2000251c <HAL_QSPI_AutoPolling_IT+0x98>
20002530:	20003938 	.word	0x20003938

20002534 <HAL_QSPI_MemoryMapped>:
20002534:	b5f7      	push	{r0, r1, r2, r4, r5, r6, r7, lr}
20002536:	4604      	mov	r4, r0
20002538:	4617      	mov	r7, r2
2000253a:	460e      	mov	r6, r1
2000253c:	f7fe fc5e 	bl	20000dfc <HAL_GetTick>
20002540:	f894 2040 	ldrb.w	r2, [r4, #64]	; 0x40
20002544:	2a01      	cmp	r2, #1
20002546:	4603      	mov	r3, r0
20002548:	d032      	beq.n	200025b0 <HAL_QSPI_MemoryMapped+0x7c>
2000254a:	2201      	movs	r2, #1
2000254c:	f884 2040 	strb.w	r2, [r4, #64]	; 0x40
20002550:	f894 2041 	ldrb.w	r2, [r4, #65]	; 0x41
20002554:	2a01      	cmp	r2, #1
20002556:	d129      	bne.n	200025ac <HAL_QSPI_MemoryMapped+0x78>
20002558:	2200      	movs	r2, #0
2000255a:	2182      	movs	r1, #130	; 0x82
2000255c:	6462      	str	r2, [r4, #68]	; 0x44
2000255e:	f884 1041 	strb.w	r1, [r4, #65]	; 0x41
20002562:	6ca1      	ldr	r1, [r4, #72]	; 0x48
20002564:	9100      	str	r1, [sp, #0]
20002566:	4620      	mov	r0, r4
20002568:	2120      	movs	r1, #32
2000256a:	f7ff fc9b 	bl	20001ea4 <QSPI_WaitFlagStateUntilTimeout>
2000256e:	4605      	mov	r5, r0
20002570:	b9b0      	cbnz	r0, 200025a0 <HAL_QSPI_MemoryMapped+0x6c>
20002572:	6823      	ldr	r3, [r4, #0]
20002574:	6879      	ldr	r1, [r7, #4]
20002576:	681a      	ldr	r2, [r3, #0]
20002578:	f022 0208 	bic.w	r2, r2, #8
2000257c:	430a      	orrs	r2, r1
2000257e:	2908      	cmp	r1, #8
20002580:	601a      	str	r2, [r3, #0]
20002582:	d107      	bne.n	20002594 <HAL_QSPI_MemoryMapped+0x60>
20002584:	683a      	ldr	r2, [r7, #0]
20002586:	631a      	str	r2, [r3, #48]	; 0x30
20002588:	2210      	movs	r2, #16
2000258a:	60da      	str	r2, [r3, #12]
2000258c:	681a      	ldr	r2, [r3, #0]
2000258e:	f442 1280 	orr.w	r2, r2, #1048576	; 0x100000
20002592:	601a      	str	r2, [r3, #0]
20002594:	f04f 6240 	mov.w	r2, #201326592	; 0xc000000
20002598:	4631      	mov	r1, r6
2000259a:	4620      	mov	r0, r4
2000259c:	f7ff fbce 	bl	20001d3c <QSPI_Config>
200025a0:	2300      	movs	r3, #0
200025a2:	f884 3040 	strb.w	r3, [r4, #64]	; 0x40
200025a6:	4628      	mov	r0, r5
200025a8:	b003      	add	sp, #12
200025aa:	bdf0      	pop	{r4, r5, r6, r7, pc}
200025ac:	2502      	movs	r5, #2
200025ae:	e7f7      	b.n	200025a0 <HAL_QSPI_MemoryMapped+0x6c>
200025b0:	2502      	movs	r5, #2
200025b2:	e7f8      	b.n	200025a6 <HAL_QSPI_MemoryMapped+0x72>

200025b4 <HAL_QSPI_ErrorCallback>:
200025b4:	4770      	bx	lr

200025b6 <QSPI_DMAAbortCplt>:
200025b6:	6b80      	ldr	r0, [r0, #56]	; 0x38
200025b8:	b508      	push	{r3, lr}
200025ba:	2300      	movs	r3, #0
200025bc:	6383      	str	r3, [r0, #56]	; 0x38
200025be:	62c3      	str	r3, [r0, #44]	; 0x2c
200025c0:	f890 3041 	ldrb.w	r3, [r0, #65]	; 0x41
200025c4:	2b08      	cmp	r3, #8
200025c6:	d10b      	bne.n	200025e0 <QSPI_DMAAbortCplt+0x2a>
200025c8:	6803      	ldr	r3, [r0, #0]
200025ca:	2202      	movs	r2, #2
200025cc:	60da      	str	r2, [r3, #12]
200025ce:	681a      	ldr	r2, [r3, #0]
200025d0:	f442 3200 	orr.w	r2, r2, #131072	; 0x20000
200025d4:	601a      	str	r2, [r3, #0]
200025d6:	681a      	ldr	r2, [r3, #0]
200025d8:	f042 0202 	orr.w	r2, r2, #2
200025dc:	601a      	str	r2, [r3, #0]
200025de:	bd08      	pop	{r3, pc}
200025e0:	2301      	movs	r3, #1
200025e2:	f880 3041 	strb.w	r3, [r0, #65]	; 0x41
200025e6:	f7ff ffe5 	bl	200025b4 <HAL_QSPI_ErrorCallback>
200025ea:	e7f8      	b.n	200025de <QSPI_DMAAbortCplt+0x28>

200025ec <HAL_QSPI_AbortCpltCallback>:
200025ec:	4770      	bx	lr

200025ee <HAL_QSPI_CmdCpltCallback>:
200025ee:	4770      	bx	lr

200025f0 <HAL_QSPI_RxCpltCallback>:
200025f0:	4770      	bx	lr

200025f2 <HAL_QSPI_TxCpltCallback>:
200025f2:	4770      	bx	lr

200025f4 <HAL_QSPI_RxHalfCpltCallback>:
200025f4:	4770      	bx	lr

200025f6 <QSPI_DMARxHalfCplt>:
200025f6:	b508      	push	{r3, lr}
200025f8:	6b80      	ldr	r0, [r0, #56]	; 0x38
200025fa:	f7ff fffb 	bl	200025f4 <HAL_QSPI_RxHalfCpltCallback>
200025fe:	bd08      	pop	{r3, pc}

20002600 <HAL_QSPI_TxHalfCpltCallback>:
20002600:	4770      	bx	lr

20002602 <QSPI_DMATxHalfCplt>:
20002602:	b508      	push	{r3, lr}
20002604:	6b80      	ldr	r0, [r0, #56]	; 0x38
20002606:	f7ff fffb 	bl	20002600 <HAL_QSPI_TxHalfCpltCallback>
2000260a:	bd08      	pop	{r3, pc}

2000260c <HAL_QSPI_FifoThresholdCallback>:
2000260c:	4770      	bx	lr

2000260e <HAL_QSPI_StatusMatchCallback>:
2000260e:	4770      	bx	lr

20002610 <HAL_QSPI_TimeOutCallback>:
20002610:	4770      	bx	lr

20002612 <HAL_QSPI_GetState>:
20002612:	f890 0041 	ldrb.w	r0, [r0, #65]	; 0x41
20002616:	4770      	bx	lr

20002618 <HAL_QSPI_GetError>:
20002618:	6c40      	ldr	r0, [r0, #68]	; 0x44
2000261a:	4770      	bx	lr

2000261c <HAL_QSPI_Abort>:
2000261c:	b537      	push	{r0, r1, r2, r4, r5, lr}
2000261e:	4604      	mov	r4, r0
20002620:	f7fe fbec 	bl	20000dfc <HAL_GetTick>
20002624:	4605      	mov	r5, r0
20002626:	f894 0041 	ldrb.w	r0, [r4, #65]	; 0x41
2000262a:	f010 0002 	ands.w	r0, r0, #2
2000262e:	d02f      	beq.n	20002690 <HAL_QSPI_Abort+0x74>
20002630:	2300      	movs	r3, #0
20002632:	f884 3040 	strb.w	r3, [r4, #64]	; 0x40
20002636:	6823      	ldr	r3, [r4, #0]
20002638:	681a      	ldr	r2, [r3, #0]
2000263a:	0752      	lsls	r2, r2, #29
2000263c:	d50b      	bpl.n	20002656 <HAL_QSPI_Abort+0x3a>
2000263e:	681a      	ldr	r2, [r3, #0]
20002640:	6be0      	ldr	r0, [r4, #60]	; 0x3c
20002642:	f022 0204 	bic.w	r2, r2, #4
20002646:	601a      	str	r2, [r3, #0]
20002648:	f7fe ff04 	bl	20001454 <HAL_DMA_Abort>
2000264c:	b118      	cbz	r0, 20002656 <HAL_QSPI_Abort+0x3a>
2000264e:	6c63      	ldr	r3, [r4, #68]	; 0x44
20002650:	f043 0304 	orr.w	r3, r3, #4
20002654:	6463      	str	r3, [r4, #68]	; 0x44
20002656:	6822      	ldr	r2, [r4, #0]
20002658:	6813      	ldr	r3, [r2, #0]
2000265a:	f043 0302 	orr.w	r3, r3, #2
2000265e:	6013      	str	r3, [r2, #0]
20002660:	6ca3      	ldr	r3, [r4, #72]	; 0x48
20002662:	9300      	str	r3, [sp, #0]
20002664:	2201      	movs	r2, #1
20002666:	462b      	mov	r3, r5
20002668:	2102      	movs	r1, #2
2000266a:	4620      	mov	r0, r4
2000266c:	f7ff fc1a 	bl	20001ea4 <QSPI_WaitFlagStateUntilTimeout>
20002670:	b970      	cbnz	r0, 20002690 <HAL_QSPI_Abort+0x74>
20002672:	6823      	ldr	r3, [r4, #0]
20002674:	2202      	movs	r2, #2
20002676:	60da      	str	r2, [r3, #12]
20002678:	6ca3      	ldr	r3, [r4, #72]	; 0x48
2000267a:	9300      	str	r3, [sp, #0]
2000267c:	4602      	mov	r2, r0
2000267e:	462b      	mov	r3, r5
20002680:	2120      	movs	r1, #32
20002682:	4620      	mov	r0, r4
20002684:	f7ff fc0e 	bl	20001ea4 <QSPI_WaitFlagStateUntilTimeout>
20002688:	b910      	cbnz	r0, 20002690 <HAL_QSPI_Abort+0x74>
2000268a:	2301      	movs	r3, #1
2000268c:	f884 3041 	strb.w	r3, [r4, #65]	; 0x41
20002690:	b003      	add	sp, #12
20002692:	bd30      	pop	{r4, r5, pc}

20002694 <HAL_QSPI_Transmit>:
20002694:	e92d 41f3 	stmdb	sp!, {r0, r1, r4, r5, r6, r7, r8, lr}
20002698:	4604      	mov	r4, r0
2000269a:	4688      	mov	r8, r1
2000269c:	4617      	mov	r7, r2
2000269e:	f7fe fbad 	bl	20000dfc <HAL_GetTick>
200026a2:	f894 3040 	ldrb.w	r3, [r4, #64]	; 0x40
200026a6:	2b01      	cmp	r3, #1
200026a8:	4606      	mov	r6, r0
200026aa:	d04f      	beq.n	2000274c <HAL_QSPI_Transmit+0xb8>
200026ac:	2301      	movs	r3, #1
200026ae:	f884 3040 	strb.w	r3, [r4, #64]	; 0x40
200026b2:	f894 0041 	ldrb.w	r0, [r4, #65]	; 0x41
200026b6:	6825      	ldr	r5, [r4, #0]
200026b8:	b2c0      	uxtb	r0, r0
200026ba:	4298      	cmp	r0, r3
200026bc:	d144      	bne.n	20002748 <HAL_QSPI_Transmit+0xb4>
200026be:	2300      	movs	r3, #0
200026c0:	6463      	str	r3, [r4, #68]	; 0x44
200026c2:	f1b8 0f00 	cmp.w	r8, #0
200026c6:	d03a      	beq.n	2000273e <HAL_QSPI_Transmit+0xaa>
200026c8:	2312      	movs	r3, #18
200026ca:	f884 3041 	strb.w	r3, [r4, #65]	; 0x41
200026ce:	692b      	ldr	r3, [r5, #16]
200026d0:	3301      	adds	r3, #1
200026d2:	62e3      	str	r3, [r4, #44]	; 0x2c
200026d4:	692b      	ldr	r3, [r5, #16]
200026d6:	f8c4 8024 	str.w	r8, [r4, #36]	; 0x24
200026da:	3301      	adds	r3, #1
200026dc:	62a3      	str	r3, [r4, #40]	; 0x28
200026de:	696b      	ldr	r3, [r5, #20]
200026e0:	f023 6340 	bic.w	r3, r3, #201326592	; 0xc000000
200026e4:	616b      	str	r3, [r5, #20]
200026e6:	6ae3      	ldr	r3, [r4, #44]	; 0x2c
200026e8:	b9b3      	cbnz	r3, 20002718 <HAL_QSPI_Transmit+0x84>
200026ea:	9700      	str	r7, [sp, #0]
200026ec:	4633      	mov	r3, r6
200026ee:	2201      	movs	r2, #1
200026f0:	2102      	movs	r1, #2
200026f2:	4620      	mov	r0, r4
200026f4:	f7ff fbd6 	bl	20001ea4 <QSPI_WaitFlagStateUntilTimeout>
200026f8:	b928      	cbnz	r0, 20002706 <HAL_QSPI_Transmit+0x72>
200026fa:	6823      	ldr	r3, [r4, #0]
200026fc:	2202      	movs	r2, #2
200026fe:	60da      	str	r2, [r3, #12]
20002700:	4620      	mov	r0, r4
20002702:	f7ff ff8b 	bl	2000261c <HAL_QSPI_Abort>
20002706:	2301      	movs	r3, #1
20002708:	f884 3041 	strb.w	r3, [r4, #65]	; 0x41
2000270c:	2300      	movs	r3, #0
2000270e:	f884 3040 	strb.w	r3, [r4, #64]	; 0x40
20002712:	b002      	add	sp, #8
20002714:	e8bd 81f0 	ldmia.w	sp!, {r4, r5, r6, r7, r8, pc}
20002718:	9700      	str	r7, [sp, #0]
2000271a:	4633      	mov	r3, r6
2000271c:	2201      	movs	r2, #1
2000271e:	2104      	movs	r1, #4
20002720:	4620      	mov	r0, r4
20002722:	f7ff fbbf 	bl	20001ea4 <QSPI_WaitFlagStateUntilTimeout>
20002726:	2800      	cmp	r0, #0
20002728:	d1ed      	bne.n	20002706 <HAL_QSPI_Transmit+0x72>
2000272a:	6a63      	ldr	r3, [r4, #36]	; 0x24
2000272c:	1c5a      	adds	r2, r3, #1
2000272e:	6262      	str	r2, [r4, #36]	; 0x24
20002730:	781b      	ldrb	r3, [r3, #0]
20002732:	f885 3020 	strb.w	r3, [r5, #32]
20002736:	6ae3      	ldr	r3, [r4, #44]	; 0x2c
20002738:	3b01      	subs	r3, #1
2000273a:	62e3      	str	r3, [r4, #44]	; 0x2c
2000273c:	e7d3      	b.n	200026e6 <HAL_QSPI_Transmit+0x52>
2000273e:	6c63      	ldr	r3, [r4, #68]	; 0x44
20002740:	f043 0308 	orr.w	r3, r3, #8
20002744:	6463      	str	r3, [r4, #68]	; 0x44
20002746:	e7e1      	b.n	2000270c <HAL_QSPI_Transmit+0x78>
20002748:	2002      	movs	r0, #2
2000274a:	e7df      	b.n	2000270c <HAL_QSPI_Transmit+0x78>
2000274c:	2002      	movs	r0, #2
2000274e:	e7e0      	b.n	20002712 <HAL_QSPI_Transmit+0x7e>

20002750 <HAL_QSPI_Receive>:
20002750:	e92d 41f3 	stmdb	sp!, {r0, r1, r4, r5, r6, r7, r8, lr}
20002754:	4604      	mov	r4, r0
20002756:	4617      	mov	r7, r2
20002758:	4688      	mov	r8, r1
2000275a:	f7fe fb4f 	bl	20000dfc <HAL_GetTick>
2000275e:	6825      	ldr	r5, [r4, #0]
20002760:	69aa      	ldr	r2, [r5, #24]
20002762:	f894 3040 	ldrb.w	r3, [r4, #64]	; 0x40
20002766:	2b01      	cmp	r3, #1
20002768:	4606      	mov	r6, r0
2000276a:	d051      	beq.n	20002810 <HAL_QSPI_Receive+0xc0>
2000276c:	2301      	movs	r3, #1
2000276e:	f884 3040 	strb.w	r3, [r4, #64]	; 0x40
20002772:	f894 0041 	ldrb.w	r0, [r4, #65]	; 0x41
20002776:	b2c0      	uxtb	r0, r0
20002778:	4298      	cmp	r0, r3
2000277a:	d147      	bne.n	2000280c <HAL_QSPI_Receive+0xbc>
2000277c:	2300      	movs	r3, #0
2000277e:	6463      	str	r3, [r4, #68]	; 0x44
20002780:	f1b8 0f00 	cmp.w	r8, #0
20002784:	d03d      	beq.n	20002802 <HAL_QSPI_Receive+0xb2>
20002786:	2322      	movs	r3, #34	; 0x22
20002788:	f884 3041 	strb.w	r3, [r4, #65]	; 0x41
2000278c:	692b      	ldr	r3, [r5, #16]
2000278e:	3301      	adds	r3, #1
20002790:	63a3      	str	r3, [r4, #56]	; 0x38
20002792:	692b      	ldr	r3, [r5, #16]
20002794:	f8c4 8030 	str.w	r8, [r4, #48]	; 0x30
20002798:	3301      	adds	r3, #1
2000279a:	6363      	str	r3, [r4, #52]	; 0x34
2000279c:	696b      	ldr	r3, [r5, #20]
2000279e:	f023 6340 	bic.w	r3, r3, #201326592	; 0xc000000
200027a2:	f043 6380 	orr.w	r3, r3, #67108864	; 0x4000000
200027a6:	616b      	str	r3, [r5, #20]
200027a8:	61aa      	str	r2, [r5, #24]
200027aa:	6ba3      	ldr	r3, [r4, #56]	; 0x38
200027ac:	b9b3      	cbnz	r3, 200027dc <HAL_QSPI_Receive+0x8c>
200027ae:	9700      	str	r7, [sp, #0]
200027b0:	4633      	mov	r3, r6
200027b2:	2201      	movs	r2, #1
200027b4:	2102      	movs	r1, #2
200027b6:	4620      	mov	r0, r4
200027b8:	f7ff fb74 	bl	20001ea4 <QSPI_WaitFlagStateUntilTimeout>
200027bc:	b928      	cbnz	r0, 200027ca <HAL_QSPI_Receive+0x7a>
200027be:	6823      	ldr	r3, [r4, #0]
200027c0:	2202      	movs	r2, #2
200027c2:	60da      	str	r2, [r3, #12]
200027c4:	4620      	mov	r0, r4
200027c6:	f7ff ff29 	bl	2000261c <HAL_QSPI_Abort>
200027ca:	2301      	movs	r3, #1
200027cc:	f884 3041 	strb.w	r3, [r4, #65]	; 0x41
200027d0:	2300      	movs	r3, #0
200027d2:	f884 3040 	strb.w	r3, [r4, #64]	; 0x40
200027d6:	b002      	add	sp, #8
200027d8:	e8bd 81f0 	ldmia.w	sp!, {r4, r5, r6, r7, r8, pc}
200027dc:	9700      	str	r7, [sp, #0]
200027de:	4633      	mov	r3, r6
200027e0:	2201      	movs	r2, #1
200027e2:	2106      	movs	r1, #6
200027e4:	4620      	mov	r0, r4
200027e6:	f7ff fb5d 	bl	20001ea4 <QSPI_WaitFlagStateUntilTimeout>
200027ea:	2800      	cmp	r0, #0
200027ec:	d1ed      	bne.n	200027ca <HAL_QSPI_Receive+0x7a>
200027ee:	6b23      	ldr	r3, [r4, #48]	; 0x30
200027f0:	1c5a      	adds	r2, r3, #1
200027f2:	6322      	str	r2, [r4, #48]	; 0x30
200027f4:	f895 2020 	ldrb.w	r2, [r5, #32]
200027f8:	701a      	strb	r2, [r3, #0]
200027fa:	6ba3      	ldr	r3, [r4, #56]	; 0x38
200027fc:	3b01      	subs	r3, #1
200027fe:	63a3      	str	r3, [r4, #56]	; 0x38
20002800:	e7d3      	b.n	200027aa <HAL_QSPI_Receive+0x5a>
20002802:	6c63      	ldr	r3, [r4, #68]	; 0x44
20002804:	f043 0308 	orr.w	r3, r3, #8
20002808:	6463      	str	r3, [r4, #68]	; 0x44
2000280a:	e7e1      	b.n	200027d0 <HAL_QSPI_Receive+0x80>
2000280c:	2002      	movs	r0, #2
2000280e:	e7df      	b.n	200027d0 <HAL_QSPI_Receive+0x80>
20002810:	2002      	movs	r0, #2
20002812:	e7e0      	b.n	200027d6 <HAL_QSPI_Receive+0x86>

20002814 <HAL_QSPI_Abort_IT>:
20002814:	f890 3041 	ldrb.w	r3, [r0, #65]	; 0x41
20002818:	0799      	lsls	r1, r3, #30
2000281a:	b510      	push	{r4, lr}
2000281c:	4604      	mov	r4, r0
2000281e:	d51d      	bpl.n	2000285c <HAL_QSPI_Abort_IT+0x48>
20002820:	2300      	movs	r3, #0
20002822:	f880 3040 	strb.w	r3, [r0, #64]	; 0x40
20002826:	2308      	movs	r3, #8
20002828:	f880 3041 	strb.w	r3, [r0, #65]	; 0x41
2000282c:	6803      	ldr	r3, [r0, #0]
2000282e:	681a      	ldr	r2, [r3, #0]
20002830:	f422 12f8 	bic.w	r2, r2, #2031616	; 0x1f0000
20002834:	601a      	str	r2, [r3, #0]
20002836:	681a      	ldr	r2, [r3, #0]
20002838:	0752      	lsls	r2, r2, #29
2000283a:	d511      	bpl.n	20002860 <HAL_QSPI_Abort_IT+0x4c>
2000283c:	681a      	ldr	r2, [r3, #0]
2000283e:	6bc0      	ldr	r0, [r0, #60]	; 0x3c
20002840:	f022 0204 	bic.w	r2, r2, #4
20002844:	601a      	str	r2, [r3, #0]
20002846:	4b0c      	ldr	r3, [pc, #48]	; (20002878 <HAL_QSPI_Abort_IT+0x64>)
20002848:	6503      	str	r3, [r0, #80]	; 0x50
2000284a:	f7fe fe46 	bl	200014da <HAL_DMA_Abort_IT>
2000284e:	b128      	cbz	r0, 2000285c <HAL_QSPI_Abort_IT+0x48>
20002850:	2301      	movs	r3, #1
20002852:	f884 3041 	strb.w	r3, [r4, #65]	; 0x41
20002856:	4620      	mov	r0, r4
20002858:	f7ff fec8 	bl	200025ec <HAL_QSPI_AbortCpltCallback>
2000285c:	2000      	movs	r0, #0
2000285e:	bd10      	pop	{r4, pc}
20002860:	2202      	movs	r2, #2
20002862:	60da      	str	r2, [r3, #12]
20002864:	681a      	ldr	r2, [r3, #0]
20002866:	f442 3200 	orr.w	r2, r2, #131072	; 0x20000
2000286a:	601a      	str	r2, [r3, #0]
2000286c:	681a      	ldr	r2, [r3, #0]
2000286e:	f042 0202 	orr.w	r2, r2, #2
20002872:	601a      	str	r2, [r3, #0]
20002874:	e7f2      	b.n	2000285c <HAL_QSPI_Abort_IT+0x48>
20002876:	bf00      	nop
20002878:	200025b7 	.word	0x200025b7

2000287c <HAL_QSPI_IRQHandler>:
2000287c:	b538      	push	{r3, r4, r5, lr}
2000287e:	6803      	ldr	r3, [r0, #0]
20002880:	6899      	ldr	r1, [r3, #8]
20002882:	681a      	ldr	r2, [r3, #0]
20002884:	4604      	mov	r4, r0
20002886:	0748      	lsls	r0, r1, #29
20002888:	d532      	bpl.n	200028f0 <HAL_QSPI_IRQHandler+0x74>
2000288a:	0355      	lsls	r5, r2, #13
2000288c:	d530      	bpl.n	200028f0 <HAL_QSPI_IRQHandler+0x74>
2000288e:	f894 2041 	ldrb.w	r2, [r4, #65]	; 0x41
20002892:	2a12      	cmp	r2, #18
20002894:	d117      	bne.n	200028c6 <HAL_QSPI_IRQHandler+0x4a>
20002896:	6822      	ldr	r2, [r4, #0]
20002898:	6891      	ldr	r1, [r2, #8]
2000289a:	0748      	lsls	r0, r1, #29
2000289c:	d505      	bpl.n	200028aa <HAL_QSPI_IRQHandler+0x2e>
2000289e:	6ae1      	ldr	r1, [r4, #44]	; 0x2c
200028a0:	b939      	cbnz	r1, 200028b2 <HAL_QSPI_IRQHandler+0x36>
200028a2:	6813      	ldr	r3, [r2, #0]
200028a4:	f423 2380 	bic.w	r3, r3, #262144	; 0x40000
200028a8:	6013      	str	r3, [r2, #0]
200028aa:	4620      	mov	r0, r4
200028ac:	f7ff feae 	bl	2000260c <HAL_QSPI_FifoThresholdCallback>
200028b0:	bd38      	pop	{r3, r4, r5, pc}
200028b2:	6a62      	ldr	r2, [r4, #36]	; 0x24
200028b4:	1c51      	adds	r1, r2, #1
200028b6:	6261      	str	r1, [r4, #36]	; 0x24
200028b8:	7812      	ldrb	r2, [r2, #0]
200028ba:	f883 2020 	strb.w	r2, [r3, #32]
200028be:	6ae2      	ldr	r2, [r4, #44]	; 0x2c
200028c0:	3a01      	subs	r2, #1
200028c2:	62e2      	str	r2, [r4, #44]	; 0x2c
200028c4:	e7e7      	b.n	20002896 <HAL_QSPI_IRQHandler+0x1a>
200028c6:	f894 2041 	ldrb.w	r2, [r4, #65]	; 0x41
200028ca:	2a22      	cmp	r2, #34	; 0x22
200028cc:	d1ed      	bne.n	200028aa <HAL_QSPI_IRQHandler+0x2e>
200028ce:	6822      	ldr	r2, [r4, #0]
200028d0:	6891      	ldr	r1, [r2, #8]
200028d2:	0749      	lsls	r1, r1, #29
200028d4:	d5e9      	bpl.n	200028aa <HAL_QSPI_IRQHandler+0x2e>
200028d6:	6ba1      	ldr	r1, [r4, #56]	; 0x38
200028d8:	2900      	cmp	r1, #0
200028da:	d0e2      	beq.n	200028a2 <HAL_QSPI_IRQHandler+0x26>
200028dc:	6b22      	ldr	r2, [r4, #48]	; 0x30
200028de:	1c51      	adds	r1, r2, #1
200028e0:	6321      	str	r1, [r4, #48]	; 0x30
200028e2:	f893 1020 	ldrb.w	r1, [r3, #32]
200028e6:	7011      	strb	r1, [r2, #0]
200028e8:	6ba2      	ldr	r2, [r4, #56]	; 0x38
200028ea:	3a01      	subs	r2, #1
200028ec:	63a2      	str	r2, [r4, #56]	; 0x38
200028ee:	e7ee      	b.n	200028ce <HAL_QSPI_IRQHandler+0x52>
200028f0:	078d      	lsls	r5, r1, #30
200028f2:	d569      	bpl.n	200029c8 <HAL_QSPI_IRQHandler+0x14c>
200028f4:	0390      	lsls	r0, r2, #14
200028f6:	d567      	bpl.n	200029c8 <HAL_QSPI_IRQHandler+0x14c>
200028f8:	2202      	movs	r2, #2
200028fa:	60da      	str	r2, [r3, #12]
200028fc:	681a      	ldr	r2, [r3, #0]
200028fe:	f422 22e0 	bic.w	r2, r2, #458752	; 0x70000
20002902:	601a      	str	r2, [r3, #0]
20002904:	f894 2041 	ldrb.w	r2, [r4, #65]	; 0x41
20002908:	2a12      	cmp	r2, #18
2000290a:	d116      	bne.n	2000293a <HAL_QSPI_IRQHandler+0xbe>
2000290c:	681a      	ldr	r2, [r3, #0]
2000290e:	0751      	lsls	r1, r2, #29
20002910:	d509      	bpl.n	20002926 <HAL_QSPI_IRQHandler+0xaa>
20002912:	681a      	ldr	r2, [r3, #0]
20002914:	f022 0204 	bic.w	r2, r2, #4
20002918:	601a      	str	r2, [r3, #0]
2000291a:	6be3      	ldr	r3, [r4, #60]	; 0x3c
2000291c:	681a      	ldr	r2, [r3, #0]
2000291e:	6813      	ldr	r3, [r2, #0]
20002920:	f023 0301 	bic.w	r3, r3, #1
20002924:	6013      	str	r3, [r2, #0]
20002926:	4620      	mov	r0, r4
20002928:	f7ff ff74 	bl	20002814 <HAL_QSPI_Abort_IT>
2000292c:	2301      	movs	r3, #1
2000292e:	f884 3041 	strb.w	r3, [r4, #65]	; 0x41
20002932:	4620      	mov	r0, r4
20002934:	f7ff fe5d 	bl	200025f2 <HAL_QSPI_TxCpltCallback>
20002938:	e7ba      	b.n	200028b0 <HAL_QSPI_IRQHandler+0x34>
2000293a:	f894 2041 	ldrb.w	r2, [r4, #65]	; 0x41
2000293e:	2a22      	cmp	r2, #34	; 0x22
20002940:	d128      	bne.n	20002994 <HAL_QSPI_IRQHandler+0x118>
20002942:	681a      	ldr	r2, [r3, #0]
20002944:	0752      	lsls	r2, r2, #29
20002946:	d51f      	bpl.n	20002988 <HAL_QSPI_IRQHandler+0x10c>
20002948:	681a      	ldr	r2, [r3, #0]
2000294a:	f022 0204 	bic.w	r2, r2, #4
2000294e:	601a      	str	r2, [r3, #0]
20002950:	6be3      	ldr	r3, [r4, #60]	; 0x3c
20002952:	681a      	ldr	r2, [r3, #0]
20002954:	6813      	ldr	r3, [r2, #0]
20002956:	f023 0301 	bic.w	r3, r3, #1
2000295a:	6013      	str	r3, [r2, #0]
2000295c:	4620      	mov	r0, r4
2000295e:	f7ff ff59 	bl	20002814 <HAL_QSPI_Abort_IT>
20002962:	2301      	movs	r3, #1
20002964:	f884 3041 	strb.w	r3, [r4, #65]	; 0x41
20002968:	4620      	mov	r0, r4
2000296a:	f7ff fe41 	bl	200025f0 <HAL_QSPI_RxCpltCallback>
2000296e:	e79f      	b.n	200028b0 <HAL_QSPI_IRQHandler+0x34>
20002970:	6ba2      	ldr	r2, [r4, #56]	; 0x38
20002972:	2a00      	cmp	r2, #0
20002974:	d0f2      	beq.n	2000295c <HAL_QSPI_IRQHandler+0xe0>
20002976:	6b22      	ldr	r2, [r4, #48]	; 0x30
20002978:	1c51      	adds	r1, r2, #1
2000297a:	6321      	str	r1, [r4, #48]	; 0x30
2000297c:	f893 1020 	ldrb.w	r1, [r3, #32]
20002980:	7011      	strb	r1, [r2, #0]
20002982:	6ba2      	ldr	r2, [r4, #56]	; 0x38
20002984:	3a01      	subs	r2, #1
20002986:	63a2      	str	r2, [r4, #56]	; 0x38
20002988:	6822      	ldr	r2, [r4, #0]
2000298a:	6892      	ldr	r2, [r2, #8]
2000298c:	f412 5f7c 	tst.w	r2, #16128	; 0x3f00
20002990:	d1ee      	bne.n	20002970 <HAL_QSPI_IRQHandler+0xf4>
20002992:	e7e3      	b.n	2000295c <HAL_QSPI_IRQHandler+0xe0>
20002994:	f894 3041 	ldrb.w	r3, [r4, #65]	; 0x41
20002998:	2b02      	cmp	r3, #2
2000299a:	d106      	bne.n	200029aa <HAL_QSPI_IRQHandler+0x12e>
2000299c:	2301      	movs	r3, #1
2000299e:	f884 3041 	strb.w	r3, [r4, #65]	; 0x41
200029a2:	4620      	mov	r0, r4
200029a4:	f7ff fe23 	bl	200025ee <HAL_QSPI_CmdCpltCallback>
200029a8:	e782      	b.n	200028b0 <HAL_QSPI_IRQHandler+0x34>
200029aa:	f894 3041 	ldrb.w	r3, [r4, #65]	; 0x41
200029ae:	2b08      	cmp	r3, #8
200029b0:	f47f af7e 	bne.w	200028b0 <HAL_QSPI_IRQHandler+0x34>
200029b4:	2301      	movs	r3, #1
200029b6:	f884 3041 	strb.w	r3, [r4, #65]	; 0x41
200029ba:	6c63      	ldr	r3, [r4, #68]	; 0x44
200029bc:	4620      	mov	r0, r4
200029be:	2b00      	cmp	r3, #0
200029c0:	d13a      	bne.n	20002a38 <HAL_QSPI_IRQHandler+0x1bc>
200029c2:	f7ff fe13 	bl	200025ec <HAL_QSPI_AbortCpltCallback>
200029c6:	e773      	b.n	200028b0 <HAL_QSPI_IRQHandler+0x34>
200029c8:	070d      	lsls	r5, r1, #28
200029ca:	d511      	bpl.n	200029f0 <HAL_QSPI_IRQHandler+0x174>
200029cc:	0310      	lsls	r0, r2, #12
200029ce:	d50f      	bpl.n	200029f0 <HAL_QSPI_IRQHandler+0x174>
200029d0:	2208      	movs	r2, #8
200029d2:	60da      	str	r2, [r3, #12]
200029d4:	681a      	ldr	r2, [r3, #0]
200029d6:	0255      	lsls	r5, r2, #9
200029d8:	d506      	bpl.n	200029e8 <HAL_QSPI_IRQHandler+0x16c>
200029da:	681a      	ldr	r2, [r3, #0]
200029dc:	f422 2210 	bic.w	r2, r2, #589824	; 0x90000
200029e0:	601a      	str	r2, [r3, #0]
200029e2:	2301      	movs	r3, #1
200029e4:	f884 3041 	strb.w	r3, [r4, #65]	; 0x41
200029e8:	4620      	mov	r0, r4
200029ea:	f7ff fe10 	bl	2000260e <HAL_QSPI_StatusMatchCallback>
200029ee:	e75f      	b.n	200028b0 <HAL_QSPI_IRQHandler+0x34>
200029f0:	07c8      	lsls	r0, r1, #31
200029f2:	d524      	bpl.n	20002a3e <HAL_QSPI_IRQHandler+0x1c2>
200029f4:	03d5      	lsls	r5, r2, #15
200029f6:	d522      	bpl.n	20002a3e <HAL_QSPI_IRQHandler+0x1c2>
200029f8:	2501      	movs	r5, #1
200029fa:	60dd      	str	r5, [r3, #12]
200029fc:	681a      	ldr	r2, [r3, #0]
200029fe:	f422 2270 	bic.w	r2, r2, #983040	; 0xf0000
20002a02:	601a      	str	r2, [r3, #0]
20002a04:	6c62      	ldr	r2, [r4, #68]	; 0x44
20002a06:	f042 0202 	orr.w	r2, r2, #2
20002a0a:	6462      	str	r2, [r4, #68]	; 0x44
20002a0c:	681a      	ldr	r2, [r3, #0]
20002a0e:	0750      	lsls	r0, r2, #29
20002a10:	d50f      	bpl.n	20002a32 <HAL_QSPI_IRQHandler+0x1b6>
20002a12:	681a      	ldr	r2, [r3, #0]
20002a14:	6be0      	ldr	r0, [r4, #60]	; 0x3c
20002a16:	f022 0204 	bic.w	r2, r2, #4
20002a1a:	601a      	str	r2, [r3, #0]
20002a1c:	4b0e      	ldr	r3, [pc, #56]	; (20002a58 <HAL_QSPI_IRQHandler+0x1dc>)
20002a1e:	6503      	str	r3, [r0, #80]	; 0x50
20002a20:	f7fe fd5b 	bl	200014da <HAL_DMA_Abort_IT>
20002a24:	2800      	cmp	r0, #0
20002a26:	f43f af43 	beq.w	200028b0 <HAL_QSPI_IRQHandler+0x34>
20002a2a:	6c63      	ldr	r3, [r4, #68]	; 0x44
20002a2c:	f043 0304 	orr.w	r3, r3, #4
20002a30:	6463      	str	r3, [r4, #68]	; 0x44
20002a32:	f884 5041 	strb.w	r5, [r4, #65]	; 0x41
20002a36:	4620      	mov	r0, r4
20002a38:	f7ff fdbc 	bl	200025b4 <HAL_QSPI_ErrorCallback>
20002a3c:	e738      	b.n	200028b0 <HAL_QSPI_IRQHandler+0x34>
20002a3e:	06c9      	lsls	r1, r1, #27
20002a40:	f57f af36 	bpl.w	200028b0 <HAL_QSPI_IRQHandler+0x34>
20002a44:	02d2      	lsls	r2, r2, #11
20002a46:	f57f af33 	bpl.w	200028b0 <HAL_QSPI_IRQHandler+0x34>
20002a4a:	2210      	movs	r2, #16
20002a4c:	60da      	str	r2, [r3, #12]
20002a4e:	4620      	mov	r0, r4
20002a50:	f7ff fdde 	bl	20002610 <HAL_QSPI_TimeOutCallback>
20002a54:	e72c      	b.n	200028b0 <HAL_QSPI_IRQHandler+0x34>
20002a56:	bf00      	nop
20002a58:	200025b7 	.word	0x200025b7

20002a5c <QSPI_DMAError>:
20002a5c:	b510      	push	{r4, lr}
20002a5e:	6b84      	ldr	r4, [r0, #56]	; 0x38
20002a60:	f7fe feeb 	bl	2000183a <HAL_DMA_GetError>
20002a64:	2802      	cmp	r0, #2
20002a66:	d010      	beq.n	20002a8a <QSPI_DMAError+0x2e>
20002a68:	2300      	movs	r3, #0
20002a6a:	63a3      	str	r3, [r4, #56]	; 0x38
20002a6c:	62e3      	str	r3, [r4, #44]	; 0x2c
20002a6e:	6c63      	ldr	r3, [r4, #68]	; 0x44
20002a70:	6822      	ldr	r2, [r4, #0]
20002a72:	f043 0304 	orr.w	r3, r3, #4
20002a76:	6463      	str	r3, [r4, #68]	; 0x44
20002a78:	6813      	ldr	r3, [r2, #0]
20002a7a:	f023 0304 	bic.w	r3, r3, #4
20002a7e:	4620      	mov	r0, r4
20002a80:	6013      	str	r3, [r2, #0]
20002a82:	e8bd 4010 	ldmia.w	sp!, {r4, lr}
20002a86:	f7ff bec5 	b.w	20002814 <HAL_QSPI_Abort_IT>
20002a8a:	bd10      	pop	{r4, pc}

20002a8c <HAL_QSPI_SetTimeout>:
20002a8c:	6481      	str	r1, [r0, #72]	; 0x48
20002a8e:	4770      	bx	lr

20002a90 <HAL_QSPI_SetFifoThreshold>:
20002a90:	f890 2040 	ldrb.w	r2, [r0, #64]	; 0x40
20002a94:	2a01      	cmp	r2, #1
20002a96:	b510      	push	{r4, lr}
20002a98:	4603      	mov	r3, r0
20002a9a:	d016      	beq.n	20002aca <HAL_QSPI_SetFifoThreshold+0x3a>
20002a9c:	2201      	movs	r2, #1
20002a9e:	f880 2040 	strb.w	r2, [r0, #64]	; 0x40
20002aa2:	f890 2041 	ldrb.w	r2, [r0, #65]	; 0x41
20002aa6:	2a01      	cmp	r2, #1
20002aa8:	d10d      	bne.n	20002ac6 <HAL_QSPI_SetFifoThreshold+0x36>
20002aaa:	6804      	ldr	r4, [r0, #0]
20002aac:	6081      	str	r1, [r0, #8]
20002aae:	6822      	ldr	r2, [r4, #0]
20002ab0:	1e48      	subs	r0, r1, #1
20002ab2:	f422 51f8 	bic.w	r1, r2, #7936	; 0x1f00
20002ab6:	ea41 2100 	orr.w	r1, r1, r0, lsl #8
20002aba:	6021      	str	r1, [r4, #0]
20002abc:	2000      	movs	r0, #0
20002abe:	2200      	movs	r2, #0
20002ac0:	f883 2040 	strb.w	r2, [r3, #64]	; 0x40
20002ac4:	bd10      	pop	{r4, pc}
20002ac6:	2002      	movs	r0, #2
20002ac8:	e7f9      	b.n	20002abe <HAL_QSPI_SetFifoThreshold+0x2e>
20002aca:	2002      	movs	r0, #2
20002acc:	e7fa      	b.n	20002ac4 <HAL_QSPI_SetFifoThreshold+0x34>

20002ace <HAL_QSPI_GetFifoThreshold>:
20002ace:	6803      	ldr	r3, [r0, #0]
20002ad0:	6818      	ldr	r0, [r3, #0]
20002ad2:	f3c0 2004 	ubfx	r0, r0, #8, #5
20002ad6:	3001      	adds	r0, #1
20002ad8:	4770      	bx	lr

20002ada <HAL_RCC_DeInit>:
20002ada:	2000      	movs	r0, #0
20002adc:	4770      	bx	lr
	...

20002ae0 <HAL_RCC_OscConfig>:
20002ae0:	b513      	push	{r0, r1, r4, lr}
20002ae2:	b910      	cbnz	r0, 20002aea <HAL_RCC_OscConfig+0xa>
20002ae4:	2001      	movs	r0, #1
20002ae6:	b002      	add	sp, #8
20002ae8:	bd10      	pop	{r4, pc}
20002aea:	6803      	ldr	r3, [r0, #0]
20002aec:	07d9      	lsls	r1, r3, #31
20002aee:	d514      	bpl.n	20002b1a <HAL_RCC_OscConfig+0x3a>
20002af0:	4b8b      	ldr	r3, [pc, #556]	; (20002d20 <HAL_RCC_OscConfig+0x240>)
20002af2:	689a      	ldr	r2, [r3, #8]
20002af4:	f002 020c 	and.w	r2, r2, #12
20002af8:	2a04      	cmp	r2, #4
20002afa:	d007      	beq.n	20002b0c <HAL_RCC_OscConfig+0x2c>
20002afc:	689a      	ldr	r2, [r3, #8]
20002afe:	f002 020c 	and.w	r2, r2, #12
20002b02:	2a08      	cmp	r2, #8
20002b04:	d169      	bne.n	20002bda <HAL_RCC_OscConfig+0xfa>
20002b06:	685b      	ldr	r3, [r3, #4]
20002b08:	025a      	lsls	r2, r3, #9
20002b0a:	d566      	bpl.n	20002bda <HAL_RCC_OscConfig+0xfa>
20002b0c:	4b84      	ldr	r3, [pc, #528]	; (20002d20 <HAL_RCC_OscConfig+0x240>)
20002b0e:	681b      	ldr	r3, [r3, #0]
20002b10:	039b      	lsls	r3, r3, #14
20002b12:	d502      	bpl.n	20002b1a <HAL_RCC_OscConfig+0x3a>
20002b14:	6843      	ldr	r3, [r0, #4]
20002b16:	2b00      	cmp	r3, #0
20002b18:	d0e4      	beq.n	20002ae4 <HAL_RCC_OscConfig+0x4>
20002b1a:	6803      	ldr	r3, [r0, #0]
20002b1c:	079a      	lsls	r2, r3, #30
20002b1e:	d51a      	bpl.n	20002b56 <HAL_RCC_OscConfig+0x76>
20002b20:	4b7f      	ldr	r3, [pc, #508]	; (20002d20 <HAL_RCC_OscConfig+0x240>)
20002b22:	689a      	ldr	r2, [r3, #8]
20002b24:	f012 0f0c 	tst.w	r2, #12
20002b28:	d007      	beq.n	20002b3a <HAL_RCC_OscConfig+0x5a>
20002b2a:	689a      	ldr	r2, [r3, #8]
20002b2c:	f002 020c 	and.w	r2, r2, #12
20002b30:	2a08      	cmp	r2, #8
20002b32:	d176      	bne.n	20002c22 <HAL_RCC_OscConfig+0x142>
20002b34:	685b      	ldr	r3, [r3, #4]
20002b36:	025b      	lsls	r3, r3, #9
20002b38:	d473      	bmi.n	20002c22 <HAL_RCC_OscConfig+0x142>
20002b3a:	4b79      	ldr	r3, [pc, #484]	; (20002d20 <HAL_RCC_OscConfig+0x240>)
20002b3c:	681a      	ldr	r2, [r3, #0]
20002b3e:	0794      	lsls	r4, r2, #30
20002b40:	d502      	bpl.n	20002b48 <HAL_RCC_OscConfig+0x68>
20002b42:	68c2      	ldr	r2, [r0, #12]
20002b44:	2a01      	cmp	r2, #1
20002b46:	d1cd      	bne.n	20002ae4 <HAL_RCC_OscConfig+0x4>
20002b48:	681a      	ldr	r2, [r3, #0]
20002b4a:	6901      	ldr	r1, [r0, #16]
20002b4c:	f022 02f8 	bic.w	r2, r2, #248	; 0xf8
20002b50:	ea42 02c1 	orr.w	r2, r2, r1, lsl #3
20002b54:	601a      	str	r2, [r3, #0]
20002b56:	6803      	ldr	r3, [r0, #0]
20002b58:	071c      	lsls	r4, r3, #28
20002b5a:	d509      	bpl.n	20002b70 <HAL_RCC_OscConfig+0x90>
20002b5c:	6941      	ldr	r1, [r0, #20]
20002b5e:	4b70      	ldr	r3, [pc, #448]	; (20002d20 <HAL_RCC_OscConfig+0x240>)
20002b60:	4a70      	ldr	r2, [pc, #448]	; (20002d24 <HAL_RCC_OscConfig+0x244>)
20002b62:	2900      	cmp	r1, #0
20002b64:	d073      	beq.n	20002c4e <HAL_RCC_OscConfig+0x16e>
20002b66:	2101      	movs	r1, #1
20002b68:	6011      	str	r1, [r2, #0]
20002b6a:	6f5a      	ldr	r2, [r3, #116]	; 0x74
20002b6c:	0791      	lsls	r1, r2, #30
20002b6e:	d5fc      	bpl.n	20002b6a <HAL_RCC_OscConfig+0x8a>
20002b70:	6803      	ldr	r3, [r0, #0]
20002b72:	075c      	lsls	r4, r3, #29
20002b74:	d52c      	bpl.n	20002bd0 <HAL_RCC_OscConfig+0xf0>
20002b76:	4b6a      	ldr	r3, [pc, #424]	; (20002d20 <HAL_RCC_OscConfig+0x240>)
20002b78:	6c1a      	ldr	r2, [r3, #64]	; 0x40
20002b7a:	f012 5280 	ands.w	r2, r2, #268435456	; 0x10000000
20002b7e:	d16b      	bne.n	20002c58 <HAL_RCC_OscConfig+0x178>
20002b80:	9201      	str	r2, [sp, #4]
20002b82:	6c1a      	ldr	r2, [r3, #64]	; 0x40
20002b84:	f042 5280 	orr.w	r2, r2, #268435456	; 0x10000000
20002b88:	641a      	str	r2, [r3, #64]	; 0x40
20002b8a:	6c1b      	ldr	r3, [r3, #64]	; 0x40
20002b8c:	f003 5380 	and.w	r3, r3, #268435456	; 0x10000000
20002b90:	9301      	str	r3, [sp, #4]
20002b92:	9b01      	ldr	r3, [sp, #4]
20002b94:	2401      	movs	r4, #1
20002b96:	4b64      	ldr	r3, [pc, #400]	; (20002d28 <HAL_RCC_OscConfig+0x248>)
20002b98:	681a      	ldr	r2, [r3, #0]
20002b9a:	05d1      	lsls	r1, r2, #23
20002b9c:	d406      	bmi.n	20002bac <HAL_RCC_OscConfig+0xcc>
20002b9e:	681a      	ldr	r2, [r3, #0]
20002ba0:	f442 7280 	orr.w	r2, r2, #256	; 0x100
20002ba4:	601a      	str	r2, [r3, #0]
20002ba6:	681a      	ldr	r2, [r3, #0]
20002ba8:	05d2      	lsls	r2, r2, #23
20002baa:	d5fc      	bpl.n	20002ba6 <HAL_RCC_OscConfig+0xc6>
20002bac:	6882      	ldr	r2, [r0, #8]
20002bae:	4b5c      	ldr	r3, [pc, #368]	; (20002d20 <HAL_RCC_OscConfig+0x240>)
20002bb0:	2a01      	cmp	r2, #1
20002bb2:	d153      	bne.n	20002c5c <HAL_RCC_OscConfig+0x17c>
20002bb4:	6f1a      	ldr	r2, [r3, #112]	; 0x70
20002bb6:	f042 0201 	orr.w	r2, r2, #1
20002bba:	671a      	str	r2, [r3, #112]	; 0x70
20002bbc:	4a58      	ldr	r2, [pc, #352]	; (20002d20 <HAL_RCC_OscConfig+0x240>)
20002bbe:	6f13      	ldr	r3, [r2, #112]	; 0x70
20002bc0:	0799      	lsls	r1, r3, #30
20002bc2:	d5fc      	bpl.n	20002bbe <HAL_RCC_OscConfig+0xde>
20002bc4:	b124      	cbz	r4, 20002bd0 <HAL_RCC_OscConfig+0xf0>
20002bc6:	4a56      	ldr	r2, [pc, #344]	; (20002d20 <HAL_RCC_OscConfig+0x240>)
20002bc8:	6c13      	ldr	r3, [r2, #64]	; 0x40
20002bca:	f023 5380 	bic.w	r3, r3, #268435456	; 0x10000000
20002bce:	6413      	str	r3, [r2, #64]	; 0x40
20002bd0:	6982      	ldr	r2, [r0, #24]
20002bd2:	2a00      	cmp	r2, #0
20002bd4:	d157      	bne.n	20002c86 <HAL_RCC_OscConfig+0x1a6>
20002bd6:	2000      	movs	r0, #0
20002bd8:	e785      	b.n	20002ae6 <HAL_RCC_OscConfig+0x6>
20002bda:	6842      	ldr	r2, [r0, #4]
20002bdc:	4b50      	ldr	r3, [pc, #320]	; (20002d20 <HAL_RCC_OscConfig+0x240>)
20002bde:	f5b2 3f80 	cmp.w	r2, #65536	; 0x10000
20002be2:	d108      	bne.n	20002bf6 <HAL_RCC_OscConfig+0x116>
20002be4:	681a      	ldr	r2, [r3, #0]
20002be6:	f442 3280 	orr.w	r2, r2, #65536	; 0x10000
20002bea:	601a      	str	r2, [r3, #0]
20002bec:	4a4c      	ldr	r2, [pc, #304]	; (20002d20 <HAL_RCC_OscConfig+0x240>)
20002bee:	6813      	ldr	r3, [r2, #0]
20002bf0:	039c      	lsls	r4, r3, #14
20002bf2:	d5fc      	bpl.n	20002bee <HAL_RCC_OscConfig+0x10e>
20002bf4:	e791      	b.n	20002b1a <HAL_RCC_OscConfig+0x3a>
20002bf6:	f5b2 2fa0 	cmp.w	r2, #327680	; 0x50000
20002bfa:	d104      	bne.n	20002c06 <HAL_RCC_OscConfig+0x126>
20002bfc:	681a      	ldr	r2, [r3, #0]
20002bfe:	f442 2280 	orr.w	r2, r2, #262144	; 0x40000
20002c02:	601a      	str	r2, [r3, #0]
20002c04:	e7ee      	b.n	20002be4 <HAL_RCC_OscConfig+0x104>
20002c06:	6819      	ldr	r1, [r3, #0]
20002c08:	f421 3180 	bic.w	r1, r1, #65536	; 0x10000
20002c0c:	6019      	str	r1, [r3, #0]
20002c0e:	6819      	ldr	r1, [r3, #0]
20002c10:	f421 2180 	bic.w	r1, r1, #262144	; 0x40000
20002c14:	6019      	str	r1, [r3, #0]
20002c16:	2a00      	cmp	r2, #0
20002c18:	d1e8      	bne.n	20002bec <HAL_RCC_OscConfig+0x10c>
20002c1a:	681a      	ldr	r2, [r3, #0]
20002c1c:	0391      	lsls	r1, r2, #14
20002c1e:	d4fc      	bmi.n	20002c1a <HAL_RCC_OscConfig+0x13a>
20002c20:	e77b      	b.n	20002b1a <HAL_RCC_OscConfig+0x3a>
20002c22:	68c1      	ldr	r1, [r0, #12]
20002c24:	4a3e      	ldr	r2, [pc, #248]	; (20002d20 <HAL_RCC_OscConfig+0x240>)
20002c26:	4b41      	ldr	r3, [pc, #260]	; (20002d2c <HAL_RCC_OscConfig+0x24c>)
20002c28:	b161      	cbz	r1, 20002c44 <HAL_RCC_OscConfig+0x164>
20002c2a:	2101      	movs	r1, #1
20002c2c:	6019      	str	r1, [r3, #0]
20002c2e:	6813      	ldr	r3, [r2, #0]
20002c30:	0799      	lsls	r1, r3, #30
20002c32:	d5fc      	bpl.n	20002c2e <HAL_RCC_OscConfig+0x14e>
20002c34:	6813      	ldr	r3, [r2, #0]
20002c36:	6901      	ldr	r1, [r0, #16]
20002c38:	f023 03f8 	bic.w	r3, r3, #248	; 0xf8
20002c3c:	ea43 03c1 	orr.w	r3, r3, r1, lsl #3
20002c40:	6013      	str	r3, [r2, #0]
20002c42:	e788      	b.n	20002b56 <HAL_RCC_OscConfig+0x76>
20002c44:	6019      	str	r1, [r3, #0]
20002c46:	6813      	ldr	r3, [r2, #0]
20002c48:	079b      	lsls	r3, r3, #30
20002c4a:	d4fc      	bmi.n	20002c46 <HAL_RCC_OscConfig+0x166>
20002c4c:	e783      	b.n	20002b56 <HAL_RCC_OscConfig+0x76>
20002c4e:	6011      	str	r1, [r2, #0]
20002c50:	6f5a      	ldr	r2, [r3, #116]	; 0x74
20002c52:	0792      	lsls	r2, r2, #30
20002c54:	d4fc      	bmi.n	20002c50 <HAL_RCC_OscConfig+0x170>
20002c56:	e78b      	b.n	20002b70 <HAL_RCC_OscConfig+0x90>
20002c58:	2400      	movs	r4, #0
20002c5a:	e79c      	b.n	20002b96 <HAL_RCC_OscConfig+0xb6>
20002c5c:	2a05      	cmp	r2, #5
20002c5e:	d104      	bne.n	20002c6a <HAL_RCC_OscConfig+0x18a>
20002c60:	6f1a      	ldr	r2, [r3, #112]	; 0x70
20002c62:	f042 0204 	orr.w	r2, r2, #4
20002c66:	671a      	str	r2, [r3, #112]	; 0x70
20002c68:	e7a4      	b.n	20002bb4 <HAL_RCC_OscConfig+0xd4>
20002c6a:	6f19      	ldr	r1, [r3, #112]	; 0x70
20002c6c:	f021 0101 	bic.w	r1, r1, #1
20002c70:	6719      	str	r1, [r3, #112]	; 0x70
20002c72:	6f19      	ldr	r1, [r3, #112]	; 0x70
20002c74:	f021 0104 	bic.w	r1, r1, #4
20002c78:	6719      	str	r1, [r3, #112]	; 0x70
20002c7a:	2a00      	cmp	r2, #0
20002c7c:	d19e      	bne.n	20002bbc <HAL_RCC_OscConfig+0xdc>
20002c7e:	6f1a      	ldr	r2, [r3, #112]	; 0x70
20002c80:	0792      	lsls	r2, r2, #30
20002c82:	d4fc      	bmi.n	20002c7e <HAL_RCC_OscConfig+0x19e>
20002c84:	e79e      	b.n	20002bc4 <HAL_RCC_OscConfig+0xe4>
20002c86:	4b26      	ldr	r3, [pc, #152]	; (20002d20 <HAL_RCC_OscConfig+0x240>)
20002c88:	6899      	ldr	r1, [r3, #8]
20002c8a:	f001 010c 	and.w	r1, r1, #12
20002c8e:	2908      	cmp	r1, #8
20002c90:	4619      	mov	r1, r3
20002c92:	d021      	beq.n	20002cd8 <HAL_RCC_OscConfig+0x1f8>
20002c94:	4c26      	ldr	r4, [pc, #152]	; (20002d30 <HAL_RCC_OscConfig+0x250>)
20002c96:	2300      	movs	r3, #0
20002c98:	2a02      	cmp	r2, #2
20002c9a:	6023      	str	r3, [r4, #0]
20002c9c:	d118      	bne.n	20002cd0 <HAL_RCC_OscConfig+0x1f0>
20002c9e:	680b      	ldr	r3, [r1, #0]
20002ca0:	019b      	lsls	r3, r3, #6
20002ca2:	d4fc      	bmi.n	20002c9e <HAL_RCC_OscConfig+0x1be>
20002ca4:	e9d0 3207 	ldrd	r3, r2, [r0, #28]
20002ca8:	4313      	orrs	r3, r2
20002caa:	6a42      	ldr	r2, [r0, #36]	; 0x24
20002cac:	ea43 1382 	orr.w	r3, r3, r2, lsl #6
20002cb0:	6ac2      	ldr	r2, [r0, #44]	; 0x2c
20002cb2:	ea43 6302 	orr.w	r3, r3, r2, lsl #24
20002cb6:	6a82      	ldr	r2, [r0, #40]	; 0x28
20002cb8:	0852      	lsrs	r2, r2, #1
20002cba:	3a01      	subs	r2, #1
20002cbc:	ea43 4302 	orr.w	r3, r3, r2, lsl #16
20002cc0:	604b      	str	r3, [r1, #4]
20002cc2:	4a17      	ldr	r2, [pc, #92]	; (20002d20 <HAL_RCC_OscConfig+0x240>)
20002cc4:	2301      	movs	r3, #1
20002cc6:	6023      	str	r3, [r4, #0]
20002cc8:	6813      	ldr	r3, [r2, #0]
20002cca:	0199      	lsls	r1, r3, #6
20002ccc:	d5fc      	bpl.n	20002cc8 <HAL_RCC_OscConfig+0x1e8>
20002cce:	e782      	b.n	20002bd6 <HAL_RCC_OscConfig+0xf6>
20002cd0:	680b      	ldr	r3, [r1, #0]
20002cd2:	019b      	lsls	r3, r3, #6
20002cd4:	d4fc      	bmi.n	20002cd0 <HAL_RCC_OscConfig+0x1f0>
20002cd6:	e77e      	b.n	20002bd6 <HAL_RCC_OscConfig+0xf6>
20002cd8:	2a01      	cmp	r2, #1
20002cda:	f43f af03 	beq.w	20002ae4 <HAL_RCC_OscConfig+0x4>
20002cde:	689b      	ldr	r3, [r3, #8]
20002ce0:	69c2      	ldr	r2, [r0, #28]
20002ce2:	f403 0180 	and.w	r1, r3, #4194304	; 0x400000
20002ce6:	4291      	cmp	r1, r2
20002ce8:	f47f aefc 	bne.w	20002ae4 <HAL_RCC_OscConfig+0x4>
20002cec:	6a01      	ldr	r1, [r0, #32]
20002cee:	f003 023f 	and.w	r2, r3, #63	; 0x3f
20002cf2:	428a      	cmp	r2, r1
20002cf4:	f47f aef6 	bne.w	20002ae4 <HAL_RCC_OscConfig+0x4>
20002cf8:	6a41      	ldr	r1, [r0, #36]	; 0x24
20002cfa:	f647 72c0 	movw	r2, #32704	; 0x7fc0
20002cfe:	401a      	ands	r2, r3
20002d00:	428a      	cmp	r2, r1
20002d02:	f47f aeef 	bne.w	20002ae4 <HAL_RCC_OscConfig+0x4>
20002d06:	6a81      	ldr	r1, [r0, #40]	; 0x28
20002d08:	f403 3240 	and.w	r2, r3, #196608	; 0x30000
20002d0c:	428a      	cmp	r2, r1
20002d0e:	f47f aee9 	bne.w	20002ae4 <HAL_RCC_OscConfig+0x4>
20002d12:	6ac0      	ldr	r0, [r0, #44]	; 0x2c
20002d14:	f003 6370 	and.w	r3, r3, #251658240	; 0xf000000
20002d18:	1a18      	subs	r0, r3, r0
20002d1a:	bf18      	it	ne
20002d1c:	2001      	movne	r0, #1
20002d1e:	e6e2      	b.n	20002ae6 <HAL_RCC_OscConfig+0x6>
20002d20:	40023800 	.word	0x40023800
20002d24:	42470e80 	.word	0x42470e80
20002d28:	40007000 	.word	0x40007000
20002d2c:	42470000 	.word	0x42470000
20002d30:	42470060 	.word	0x42470060

20002d34 <HAL_RCC_MCOConfig>:
20002d34:	b570      	push	{r4, r5, r6, lr}
20002d36:	460e      	mov	r6, r1
20002d38:	b088      	sub	sp, #32
20002d3a:	4615      	mov	r5, r2
20002d3c:	4c1f      	ldr	r4, [pc, #124]	; (20002dbc <HAL_RCC_MCOConfig+0x88>)
20002d3e:	b9f0      	cbnz	r0, 20002d7e <HAL_RCC_MCOConfig+0x4a>
20002d40:	9001      	str	r0, [sp, #4]
20002d42:	6b23      	ldr	r3, [r4, #48]	; 0x30
20002d44:	f043 0301 	orr.w	r3, r3, #1
20002d48:	6323      	str	r3, [r4, #48]	; 0x30
20002d4a:	6b23      	ldr	r3, [r4, #48]	; 0x30
20002d4c:	9007      	str	r0, [sp, #28]
20002d4e:	f003 0301 	and.w	r3, r3, #1
20002d52:	9301      	str	r3, [sp, #4]
20002d54:	9b01      	ldr	r3, [sp, #4]
20002d56:	f44f 7c80 	mov.w	ip, #256	; 0x100
20002d5a:	2302      	movs	r3, #2
20002d5c:	e9cd c303 	strd	ip, r3, [sp, #12]
20002d60:	2303      	movs	r3, #3
20002d62:	e9cd 0305 	strd	r0, r3, [sp, #20]
20002d66:	a903      	add	r1, sp, #12
20002d68:	4815      	ldr	r0, [pc, #84]	; (20002dc0 <HAL_RCC_MCOConfig+0x8c>)
20002d6a:	f7fe fd69 	bl	20001840 <HAL_GPIO_Init>
20002d6e:	68a2      	ldr	r2, [r4, #8]
20002d70:	f022 62ec 	bic.w	r2, r2, #123731968	; 0x7600000
20002d74:	4332      	orrs	r2, r6
20002d76:	432a      	orrs	r2, r5
20002d78:	60a2      	str	r2, [r4, #8]
20002d7a:	b008      	add	sp, #32
20002d7c:	bd70      	pop	{r4, r5, r6, pc}
20002d7e:	2300      	movs	r3, #0
20002d80:	9302      	str	r3, [sp, #8]
20002d82:	6b22      	ldr	r2, [r4, #48]	; 0x30
20002d84:	480f      	ldr	r0, [pc, #60]	; (20002dc4 <HAL_RCC_MCOConfig+0x90>)
20002d86:	f042 0204 	orr.w	r2, r2, #4
20002d8a:	6322      	str	r2, [r4, #48]	; 0x30
20002d8c:	6b22      	ldr	r2, [r4, #48]	; 0x30
20002d8e:	9307      	str	r3, [sp, #28]
20002d90:	f002 0204 	and.w	r2, r2, #4
20002d94:	9202      	str	r2, [sp, #8]
20002d96:	9a02      	ldr	r2, [sp, #8]
20002d98:	f44f 7100 	mov.w	r1, #512	; 0x200
20002d9c:	2202      	movs	r2, #2
20002d9e:	e9cd 1203 	strd	r1, r2, [sp, #12]
20002da2:	2203      	movs	r2, #3
20002da4:	a903      	add	r1, sp, #12
20002da6:	e9cd 3205 	strd	r3, r2, [sp, #20]
20002daa:	f7fe fd49 	bl	20001840 <HAL_GPIO_Init>
20002dae:	68a2      	ldr	r2, [r4, #8]
20002db0:	f022 4278 	bic.w	r2, r2, #4160749568	; 0xf8000000
20002db4:	4332      	orrs	r2, r6
20002db6:	ea42 02c5 	orr.w	r2, r2, r5, lsl #3
20002dba:	e7dd      	b.n	20002d78 <HAL_RCC_MCOConfig+0x44>
20002dbc:	40023800 	.word	0x40023800
20002dc0:	40020000 	.word	0x40020000
20002dc4:	40020800 	.word	0x40020800

20002dc8 <HAL_RCC_EnableCSS>:
20002dc8:	4b01      	ldr	r3, [pc, #4]	; (20002dd0 <HAL_RCC_EnableCSS+0x8>)
20002dca:	2201      	movs	r2, #1
20002dcc:	601a      	str	r2, [r3, #0]
20002dce:	4770      	bx	lr
20002dd0:	4247004c 	.word	0x4247004c

20002dd4 <HAL_RCC_DisableCSS>:
20002dd4:	4b01      	ldr	r3, [pc, #4]	; (20002ddc <HAL_RCC_DisableCSS+0x8>)
20002dd6:	2200      	movs	r2, #0
20002dd8:	601a      	str	r2, [r3, #0]
20002dda:	4770      	bx	lr
20002ddc:	4247004c 	.word	0x4247004c

20002de0 <HAL_RCC_GetSysClockFreq>:
20002de0:	4913      	ldr	r1, [pc, #76]	; (20002e30 <HAL_RCC_GetSysClockFreq+0x50>)
20002de2:	b508      	push	{r3, lr}
20002de4:	688b      	ldr	r3, [r1, #8]
20002de6:	f003 030c 	and.w	r3, r3, #12
20002dea:	2b04      	cmp	r3, #4
20002dec:	d003      	beq.n	20002df6 <HAL_RCC_GetSysClockFreq+0x16>
20002dee:	2b08      	cmp	r3, #8
20002df0:	d003      	beq.n	20002dfa <HAL_RCC_GetSysClockFreq+0x1a>
20002df2:	4810      	ldr	r0, [pc, #64]	; (20002e34 <HAL_RCC_GetSysClockFreq+0x54>)
20002df4:	e000      	b.n	20002df8 <HAL_RCC_GetSysClockFreq+0x18>
20002df6:	4810      	ldr	r0, [pc, #64]	; (20002e38 <HAL_RCC_GetSysClockFreq+0x58>)
20002df8:	bd08      	pop	{r3, pc}
20002dfa:	684a      	ldr	r2, [r1, #4]
20002dfc:	684b      	ldr	r3, [r1, #4]
20002dfe:	6849      	ldr	r1, [r1, #4]
20002e00:	f413 0380 	ands.w	r3, r3, #4194304	; 0x400000
20002e04:	bf14      	ite	ne
20002e06:	480c      	ldrne	r0, [pc, #48]	; (20002e38 <HAL_RCC_GetSysClockFreq+0x58>)
20002e08:	480a      	ldreq	r0, [pc, #40]	; (20002e34 <HAL_RCC_GetSysClockFreq+0x54>)
20002e0a:	f3c1 1188 	ubfx	r1, r1, #6, #9
20002e0e:	bf18      	it	ne
20002e10:	2300      	movne	r3, #0
20002e12:	f002 023f 	and.w	r2, r2, #63	; 0x3f
20002e16:	fba1 0100 	umull	r0, r1, r1, r0
20002e1a:	f7fd f943 	bl	200000a4 <__aeabi_uldivmod>
20002e1e:	4b04      	ldr	r3, [pc, #16]	; (20002e30 <HAL_RCC_GetSysClockFreq+0x50>)
20002e20:	685b      	ldr	r3, [r3, #4]
20002e22:	f3c3 4301 	ubfx	r3, r3, #16, #2
20002e26:	3301      	adds	r3, #1
20002e28:	005b      	lsls	r3, r3, #1
20002e2a:	fbb0 f0f3 	udiv	r0, r0, r3
20002e2e:	e7e3      	b.n	20002df8 <HAL_RCC_GetSysClockFreq+0x18>
20002e30:	40023800 	.word	0x40023800
20002e34:	00f42400 	.word	0x00f42400
20002e38:	017d7840 	.word	0x017d7840

20002e3c <HAL_RCC_ClockConfig>:
20002e3c:	b538      	push	{r3, r4, r5, lr}
20002e3e:	b908      	cbnz	r0, 20002e44 <HAL_RCC_ClockConfig+0x8>
20002e40:	2001      	movs	r0, #1
20002e42:	bd38      	pop	{r3, r4, r5, pc}
20002e44:	4b3a      	ldr	r3, [pc, #232]	; (20002f30 <HAL_RCC_ClockConfig+0xf4>)
20002e46:	681a      	ldr	r2, [r3, #0]
20002e48:	f002 020f 	and.w	r2, r2, #15
20002e4c:	428a      	cmp	r2, r1
20002e4e:	d338      	bcc.n	20002ec2 <HAL_RCC_ClockConfig+0x86>
20002e50:	6804      	ldr	r4, [r0, #0]
20002e52:	07a3      	lsls	r3, r4, #30
20002e54:	d43d      	bmi.n	20002ed2 <HAL_RCC_ClockConfig+0x96>
20002e56:	07e4      	lsls	r4, r4, #31
20002e58:	d513      	bpl.n	20002e82 <HAL_RCC_ClockConfig+0x46>
20002e5a:	6843      	ldr	r3, [r0, #4]
20002e5c:	4a35      	ldr	r2, [pc, #212]	; (20002f34 <HAL_RCC_ClockConfig+0xf8>)
20002e5e:	2b01      	cmp	r3, #1
20002e60:	d14c      	bne.n	20002efc <HAL_RCC_ClockConfig+0xc0>
20002e62:	6812      	ldr	r2, [r2, #0]
20002e64:	f412 3f00 	tst.w	r2, #131072	; 0x20000
20002e68:	d0ea      	beq.n	20002e40 <HAL_RCC_ClockConfig+0x4>
20002e6a:	4a32      	ldr	r2, [pc, #200]	; (20002f34 <HAL_RCC_ClockConfig+0xf8>)
20002e6c:	6894      	ldr	r4, [r2, #8]
20002e6e:	f024 0403 	bic.w	r4, r4, #3
20002e72:	431c      	orrs	r4, r3
20002e74:	6094      	str	r4, [r2, #8]
20002e76:	009b      	lsls	r3, r3, #2
20002e78:	6894      	ldr	r4, [r2, #8]
20002e7a:	f004 040c 	and.w	r4, r4, #12
20002e7e:	429c      	cmp	r4, r3
20002e80:	d1fa      	bne.n	20002e78 <HAL_RCC_ClockConfig+0x3c>
20002e82:	4b2b      	ldr	r3, [pc, #172]	; (20002f30 <HAL_RCC_ClockConfig+0xf4>)
20002e84:	681a      	ldr	r2, [r3, #0]
20002e86:	f002 020f 	and.w	r2, r2, #15
20002e8a:	428a      	cmp	r2, r1
20002e8c:	d840      	bhi.n	20002f10 <HAL_RCC_ClockConfig+0xd4>
20002e8e:	6802      	ldr	r2, [r0, #0]
20002e90:	0751      	lsls	r1, r2, #29
20002e92:	d445      	bmi.n	20002f20 <HAL_RCC_ClockConfig+0xe4>
20002e94:	0713      	lsls	r3, r2, #28
20002e96:	d507      	bpl.n	20002ea8 <HAL_RCC_ClockConfig+0x6c>
20002e98:	4a26      	ldr	r2, [pc, #152]	; (20002f34 <HAL_RCC_ClockConfig+0xf8>)
20002e9a:	6901      	ldr	r1, [r0, #16]
20002e9c:	6893      	ldr	r3, [r2, #8]
20002e9e:	f423 4360 	bic.w	r3, r3, #57344	; 0xe000
20002ea2:	ea43 03c1 	orr.w	r3, r3, r1, lsl #3
20002ea6:	6093      	str	r3, [r2, #8]
20002ea8:	f7ff ff9a 	bl	20002de0 <HAL_RCC_GetSysClockFreq>
20002eac:	4b21      	ldr	r3, [pc, #132]	; (20002f34 <HAL_RCC_ClockConfig+0xf8>)
20002eae:	4a22      	ldr	r2, [pc, #136]	; (20002f38 <HAL_RCC_ClockConfig+0xfc>)
20002eb0:	689b      	ldr	r3, [r3, #8]
20002eb2:	f3c3 1303 	ubfx	r3, r3, #4, #4
20002eb6:	5cd3      	ldrb	r3, [r2, r3]
20002eb8:	40d8      	lsrs	r0, r3
20002eba:	4b20      	ldr	r3, [pc, #128]	; (20002f3c <HAL_RCC_ClockConfig+0x100>)
20002ebc:	6018      	str	r0, [r3, #0]
20002ebe:	2000      	movs	r0, #0
20002ec0:	e7bf      	b.n	20002e42 <HAL_RCC_ClockConfig+0x6>
20002ec2:	b2ca      	uxtb	r2, r1
20002ec4:	701a      	strb	r2, [r3, #0]
20002ec6:	681b      	ldr	r3, [r3, #0]
20002ec8:	f003 030f 	and.w	r3, r3, #15
20002ecc:	428b      	cmp	r3, r1
20002ece:	d1b7      	bne.n	20002e40 <HAL_RCC_ClockConfig+0x4>
20002ed0:	e7be      	b.n	20002e50 <HAL_RCC_ClockConfig+0x14>
20002ed2:	4b18      	ldr	r3, [pc, #96]	; (20002f34 <HAL_RCC_ClockConfig+0xf8>)
20002ed4:	f014 0f04 	tst.w	r4, #4
20002ed8:	bf1e      	ittt	ne
20002eda:	689a      	ldrne	r2, [r3, #8]
20002edc:	f442 52e0 	orrne.w	r2, r2, #7168	; 0x1c00
20002ee0:	609a      	strne	r2, [r3, #8]
20002ee2:	0725      	lsls	r5, r4, #28
20002ee4:	bf42      	ittt	mi
20002ee6:	689a      	ldrmi	r2, [r3, #8]
20002ee8:	f442 4260 	orrmi.w	r2, r2, #57344	; 0xe000
20002eec:	609a      	strmi	r2, [r3, #8]
20002eee:	689a      	ldr	r2, [r3, #8]
20002ef0:	6885      	ldr	r5, [r0, #8]
20002ef2:	f022 02f0 	bic.w	r2, r2, #240	; 0xf0
20002ef6:	432a      	orrs	r2, r5
20002ef8:	609a      	str	r2, [r3, #8]
20002efa:	e7ac      	b.n	20002e56 <HAL_RCC_ClockConfig+0x1a>
20002efc:	1e9c      	subs	r4, r3, #2
20002efe:	2c01      	cmp	r4, #1
20002f00:	6812      	ldr	r2, [r2, #0]
20002f02:	d802      	bhi.n	20002f0a <HAL_RCC_ClockConfig+0xce>
20002f04:	f012 7f00 	tst.w	r2, #33554432	; 0x2000000
20002f08:	e7ae      	b.n	20002e68 <HAL_RCC_ClockConfig+0x2c>
20002f0a:	f012 0f02 	tst.w	r2, #2
20002f0e:	e7ab      	b.n	20002e68 <HAL_RCC_ClockConfig+0x2c>
20002f10:	b2ca      	uxtb	r2, r1
20002f12:	701a      	strb	r2, [r3, #0]
20002f14:	681b      	ldr	r3, [r3, #0]
20002f16:	f003 030f 	and.w	r3, r3, #15
20002f1a:	428b      	cmp	r3, r1
20002f1c:	d190      	bne.n	20002e40 <HAL_RCC_ClockConfig+0x4>
20002f1e:	e7b6      	b.n	20002e8e <HAL_RCC_ClockConfig+0x52>
20002f20:	4904      	ldr	r1, [pc, #16]	; (20002f34 <HAL_RCC_ClockConfig+0xf8>)
20002f22:	68c4      	ldr	r4, [r0, #12]
20002f24:	688b      	ldr	r3, [r1, #8]
20002f26:	f423 53e0 	bic.w	r3, r3, #7168	; 0x1c00
20002f2a:	4323      	orrs	r3, r4
20002f2c:	608b      	str	r3, [r1, #8]
20002f2e:	e7b1      	b.n	20002e94 <HAL_RCC_ClockConfig+0x58>
20002f30:	40023c00 	.word	0x40023c00
20002f34:	40023800 	.word	0x40023800
20002f38:	20003910 	.word	0x20003910
20002f3c:	20003938 	.word	0x20003938

20002f40 <HAL_RCC_GetHCLKFreq>:
20002f40:	4b01      	ldr	r3, [pc, #4]	; (20002f48 <HAL_RCC_GetHCLKFreq+0x8>)
20002f42:	6818      	ldr	r0, [r3, #0]
20002f44:	4770      	bx	lr
20002f46:	bf00      	nop
20002f48:	20003938 	.word	0x20003938

20002f4c <HAL_RCC_GetPCLK1Freq>:
20002f4c:	4b04      	ldr	r3, [pc, #16]	; (20002f60 <HAL_RCC_GetPCLK1Freq+0x14>)
20002f4e:	4a05      	ldr	r2, [pc, #20]	; (20002f64 <HAL_RCC_GetPCLK1Freq+0x18>)
20002f50:	689b      	ldr	r3, [r3, #8]
20002f52:	f3c3 2382 	ubfx	r3, r3, #10, #3
20002f56:	5cd3      	ldrb	r3, [r2, r3]
20002f58:	4a03      	ldr	r2, [pc, #12]	; (20002f68 <HAL_RCC_GetPCLK1Freq+0x1c>)
20002f5a:	6810      	ldr	r0, [r2, #0]
20002f5c:	40d8      	lsrs	r0, r3
20002f5e:	4770      	bx	lr
20002f60:	40023800 	.word	0x40023800
20002f64:	20003920 	.word	0x20003920
20002f68:	20003938 	.word	0x20003938

20002f6c <HAL_RCC_GetPCLK2Freq>:
20002f6c:	4b04      	ldr	r3, [pc, #16]	; (20002f80 <HAL_RCC_GetPCLK2Freq+0x14>)
20002f6e:	4a05      	ldr	r2, [pc, #20]	; (20002f84 <HAL_RCC_GetPCLK2Freq+0x18>)
20002f70:	689b      	ldr	r3, [r3, #8]
20002f72:	f3c3 3342 	ubfx	r3, r3, #13, #3
20002f76:	5cd3      	ldrb	r3, [r2, r3]
20002f78:	4a03      	ldr	r2, [pc, #12]	; (20002f88 <HAL_RCC_GetPCLK2Freq+0x1c>)
20002f7a:	6810      	ldr	r0, [r2, #0]
20002f7c:	40d8      	lsrs	r0, r3
20002f7e:	4770      	bx	lr
20002f80:	40023800 	.word	0x40023800
20002f84:	20003920 	.word	0x20003920
20002f88:	20003938 	.word	0x20003938

20002f8c <HAL_RCC_GetOscConfig>:
20002f8c:	230f      	movs	r3, #15
20002f8e:	6003      	str	r3, [r0, #0]
20002f90:	4b24      	ldr	r3, [pc, #144]	; (20003024 <HAL_RCC_GetOscConfig+0x98>)
20002f92:	681a      	ldr	r2, [r3, #0]
20002f94:	0352      	lsls	r2, r2, #13
20002f96:	d537      	bpl.n	20003008 <HAL_RCC_GetOscConfig+0x7c>
20002f98:	f44f 22a0 	mov.w	r2, #327680	; 0x50000
20002f9c:	6042      	str	r2, [r0, #4]
20002f9e:	681b      	ldr	r3, [r3, #0]
20002fa0:	f013 0301 	ands.w	r3, r3, #1
20002fa4:	bf18      	it	ne
20002fa6:	2301      	movne	r3, #1
20002fa8:	60c3      	str	r3, [r0, #12]
20002faa:	4b1e      	ldr	r3, [pc, #120]	; (20003024 <HAL_RCC_GetOscConfig+0x98>)
20002fac:	681a      	ldr	r2, [r3, #0]
20002fae:	f3c2 02c4 	ubfx	r2, r2, #3, #5
20002fb2:	6102      	str	r2, [r0, #16]
20002fb4:	6f1a      	ldr	r2, [r3, #112]	; 0x70
20002fb6:	0751      	lsls	r1, r2, #29
20002fb8:	d52d      	bpl.n	20003016 <HAL_RCC_GetOscConfig+0x8a>
20002fba:	2205      	movs	r2, #5
20002fbc:	6082      	str	r2, [r0, #8]
20002fbe:	6f5b      	ldr	r3, [r3, #116]	; 0x74
20002fc0:	f013 0301 	ands.w	r3, r3, #1
20002fc4:	bf18      	it	ne
20002fc6:	2301      	movne	r3, #1
20002fc8:	6143      	str	r3, [r0, #20]
20002fca:	4b16      	ldr	r3, [pc, #88]	; (20003024 <HAL_RCC_GetOscConfig+0x98>)
20002fcc:	681a      	ldr	r2, [r3, #0]
20002fce:	01d2      	lsls	r2, r2, #7
20002fd0:	bf4c      	ite	mi
20002fd2:	2202      	movmi	r2, #2
20002fd4:	2201      	movpl	r2, #1
20002fd6:	6182      	str	r2, [r0, #24]
20002fd8:	685a      	ldr	r2, [r3, #4]
20002fda:	f402 0280 	and.w	r2, r2, #4194304	; 0x400000
20002fde:	61c2      	str	r2, [r0, #28]
20002fe0:	685a      	ldr	r2, [r3, #4]
20002fe2:	f002 023f 	and.w	r2, r2, #63	; 0x3f
20002fe6:	6202      	str	r2, [r0, #32]
20002fe8:	685a      	ldr	r2, [r3, #4]
20002fea:	f3c2 1288 	ubfx	r2, r2, #6, #9
20002fee:	6242      	str	r2, [r0, #36]	; 0x24
20002ff0:	685a      	ldr	r2, [r3, #4]
20002ff2:	f402 3240 	and.w	r2, r2, #196608	; 0x30000
20002ff6:	f502 3280 	add.w	r2, r2, #65536	; 0x10000
20002ffa:	0bd2      	lsrs	r2, r2, #15
20002ffc:	6282      	str	r2, [r0, #40]	; 0x28
20002ffe:	685b      	ldr	r3, [r3, #4]
20003000:	f3c3 6303 	ubfx	r3, r3, #24, #4
20003004:	62c3      	str	r3, [r0, #44]	; 0x2c
20003006:	4770      	bx	lr
20003008:	681a      	ldr	r2, [r3, #0]
2000300a:	f412 3280 	ands.w	r2, r2, #65536	; 0x10000
2000300e:	bf18      	it	ne
20003010:	f44f 3280 	movne.w	r2, #65536	; 0x10000
20003014:	e7c2      	b.n	20002f9c <HAL_RCC_GetOscConfig+0x10>
20003016:	6f1a      	ldr	r2, [r3, #112]	; 0x70
20003018:	f012 0201 	ands.w	r2, r2, #1
2000301c:	bf18      	it	ne
2000301e:	2201      	movne	r2, #1
20003020:	e7cc      	b.n	20002fbc <HAL_RCC_GetOscConfig+0x30>
20003022:	bf00      	nop
20003024:	40023800 	.word	0x40023800

20003028 <HAL_RCC_GetClockConfig>:
20003028:	230f      	movs	r3, #15
2000302a:	6003      	str	r3, [r0, #0]
2000302c:	4b0b      	ldr	r3, [pc, #44]	; (2000305c <HAL_RCC_GetClockConfig+0x34>)
2000302e:	689a      	ldr	r2, [r3, #8]
20003030:	f002 0203 	and.w	r2, r2, #3
20003034:	6042      	str	r2, [r0, #4]
20003036:	689a      	ldr	r2, [r3, #8]
20003038:	f002 02f0 	and.w	r2, r2, #240	; 0xf0
2000303c:	6082      	str	r2, [r0, #8]
2000303e:	689a      	ldr	r2, [r3, #8]
20003040:	f402 52e0 	and.w	r2, r2, #7168	; 0x1c00
20003044:	60c2      	str	r2, [r0, #12]
20003046:	689b      	ldr	r3, [r3, #8]
20003048:	08db      	lsrs	r3, r3, #3
2000304a:	f403 53e0 	and.w	r3, r3, #7168	; 0x1c00
2000304e:	6103      	str	r3, [r0, #16]
20003050:	4b03      	ldr	r3, [pc, #12]	; (20003060 <HAL_RCC_GetClockConfig+0x38>)
20003052:	681b      	ldr	r3, [r3, #0]
20003054:	f003 030f 	and.w	r3, r3, #15
20003058:	600b      	str	r3, [r1, #0]
2000305a:	4770      	bx	lr
2000305c:	40023800 	.word	0x40023800
20003060:	40023c00 	.word	0x40023c00

20003064 <HAL_RCC_CSSCallback>:
20003064:	4770      	bx	lr
	...

20003068 <HAL_RCC_NMI_IRQHandler>:
20003068:	b508      	push	{r3, lr}
2000306a:	4b05      	ldr	r3, [pc, #20]	; (20003080 <HAL_RCC_NMI_IRQHandler+0x18>)
2000306c:	68db      	ldr	r3, [r3, #12]
2000306e:	061b      	lsls	r3, r3, #24
20003070:	d504      	bpl.n	2000307c <HAL_RCC_NMI_IRQHandler+0x14>
20003072:	f7ff fff7 	bl	20003064 <HAL_RCC_CSSCallback>
20003076:	4b03      	ldr	r3, [pc, #12]	; (20003084 <HAL_RCC_NMI_IRQHandler+0x1c>)
20003078:	2280      	movs	r2, #128	; 0x80
2000307a:	701a      	strb	r2, [r3, #0]
2000307c:	bd08      	pop	{r3, pc}
2000307e:	bf00      	nop
20003080:	40023800 	.word	0x40023800
20003084:	4002380e 	.word	0x4002380e

20003088 <memset>:
20003088:	4402      	add	r2, r0
2000308a:	4603      	mov	r3, r0
2000308c:	4293      	cmp	r3, r2
2000308e:	d100      	bne.n	20003092 <memset+0xa>
20003090:	4770      	bx	lr
20003092:	f803 1b01 	strb.w	r1, [r3], #1
20003096:	e7f9      	b.n	2000308c <memset+0x4>
